
./target/debug/speed-ticket-calculator:     file format elf64-x86-64


Disassembly of section .init:

00000000000052b0 <_init>:
    52b0:	48 83 ec 08          	sub    rsp,0x8
    52b4:	48 8b 05 bd 47 24 00 	mov    rax,QWORD PTR [rip+0x2447bd]        # 249a78 <__gmon_start__>
    52bb:	48 85 c0             	test   rax,rax
    52be:	74 02                	je     52c2 <_init+0x12>
    52c0:	ff d0                	call   rax
    52c2:	48 83 c4 08          	add    rsp,0x8
    52c6:	c3                   	ret    

Disassembly of section .plt:

00000000000052d0 <.plt>:
    52d0:	ff 35 8a 46 24 00    	push   QWORD PTR [rip+0x24468a]        # 249960 <_GLOBAL_OFFSET_TABLE_+0x8>
    52d6:	ff 25 8c 46 24 00    	jmp    QWORD PTR [rip+0x24468c]        # 249968 <_GLOBAL_OFFSET_TABLE_+0x10>
    52dc:	0f 1f 40 00          	nop    DWORD PTR [rax+0x0]

00000000000052e0 <__fxstat64@plt>:
    52e0:	ff 25 8a 46 24 00    	jmp    QWORD PTR [rip+0x24468a]        # 249970 <__fxstat64@GLIBC_2.2.5>
    52e6:	68 00 00 00 00       	push   0x0
    52eb:	e9 e0 ff ff ff       	jmp    52d0 <.plt>

00000000000052f0 <__tls_get_addr@plt>:
    52f0:	ff 25 82 46 24 00    	jmp    QWORD PTR [rip+0x244682]        # 249978 <__tls_get_addr@GLIBC_2.3>
    52f6:	68 01 00 00 00       	push   0x1
    52fb:	e9 d0 ff ff ff       	jmp    52d0 <.plt>

0000000000005300 <__xstat64@plt>:
    5300:	ff 25 7a 46 24 00    	jmp    QWORD PTR [rip+0x24467a]        # 249980 <__xstat64@GLIBC_2.2.5>
    5306:	68 02 00 00 00       	push   0x2
    530b:	e9 c0 ff ff ff       	jmp    52d0 <.plt>

0000000000005310 <_Unwind_Resume@plt>:
    5310:	ff 25 72 46 24 00    	jmp    QWORD PTR [rip+0x244672]        # 249988 <_Unwind_Resume@GCC_3.0>
    5316:	68 03 00 00 00       	push   0x3
    531b:	e9 b0 ff ff ff       	jmp    52d0 <.plt>

Disassembly of section .plt.got:

0000000000005320 <__cxa_finalize@plt>:
    5320:	ff 25 12 49 24 00    	jmp    QWORD PTR [rip+0x244912]        # 249c38 <__cxa_finalize@GLIBC_2.2.5>
    5326:	66 90                	xchg   ax,ax

Disassembly of section .text:

0000000000005330 <_ZN4core5slice4sort14break_patterns17ha71ed1269e778051E>:
    5330:	53                   	push   rbx
    5331:	48 83 ec 20          	sub    rsp,0x20
    5335:	48 8d 46 ff          	lea    rax,[rsi-0x1]
    5339:	48 0f bd c8          	bsr    rcx,rax
    533d:	83 f1 3f             	xor    ecx,0x3f
    5340:	49 c7 c0 ff ff ff ff 	mov    r8,0xffffffffffffffff
    5347:	49 d3 e8             	shr    r8,cl
    534a:	49 89 f2             	mov    r10,rsi
    534d:	49 d1 ea             	shr    r10,1
    5350:	4d 89 d3             	mov    r11,r10
    5353:	49 83 e3 fe          	and    r11,0xfffffffffffffffe
    5357:	4d 8d 4b ff          	lea    r9,[r11-0x1]
    535b:	89 f0                	mov    eax,esi
    535d:	c1 e0 0d             	shl    eax,0xd
    5360:	31 f0                	xor    eax,esi
    5362:	89 c1                	mov    ecx,eax
    5364:	c1 e9 11             	shr    ecx,0x11
    5367:	31 c1                	xor    ecx,eax
    5369:	89 c8                	mov    eax,ecx
    536b:	c1 e0 05             	shl    eax,0x5
    536e:	31 c8                	xor    eax,ecx
    5370:	89 c1                	mov    ecx,eax
    5372:	c1 e1 0d             	shl    ecx,0xd
    5375:	31 c1                	xor    ecx,eax
    5377:	48 c1 e0 20          	shl    rax,0x20
    537b:	89 ca                	mov    edx,ecx
    537d:	c1 ea 11             	shr    edx,0x11
    5380:	31 ca                	xor    edx,ecx
    5382:	89 d3                	mov    ebx,edx
    5384:	c1 e3 05             	shl    ebx,0x5
    5387:	31 d3                	xor    ebx,edx
    5389:	48 01 d8             	add    rax,rbx
    538c:	4c 21 c0             	and    rax,r8
    538f:	31 d2                	xor    edx,edx
    5391:	48 39 f0             	cmp    rax,rsi
    5394:	48 0f 43 d6          	cmovae rdx,rsi
    5398:	49 39 f1             	cmp    r9,rsi
    539b:	0f 83 89 01 00 00    	jae    552a <_ZN4core5slice4sort14break_patterns17ha71ed1269e778051E+0x1fa>
    53a1:	48 29 d0             	sub    rax,rdx
    53a4:	48 39 f0             	cmp    rax,rsi
    53a7:	0f 83 63 01 00 00    	jae    5510 <_ZN4core5slice4sort14break_patterns17ha71ed1269e778051E+0x1e0>
    53ad:	4b 8d 14 49          	lea    rdx,[r9+r9*2]
    53b1:	48 8d 04 40          	lea    rax,[rax+rax*2]
    53b5:	48 8b 4c d7 10       	mov    rcx,QWORD PTR [rdi+rdx*8+0x10]
    53ba:	48 89 4c 24 10       	mov    QWORD PTR [rsp+0x10],rcx
    53bf:	0f 10 04 d7          	movups xmm0,XMMWORD PTR [rdi+rdx*8]
    53c3:	0f 29 04 24          	movaps XMMWORD PTR [rsp],xmm0
    53c7:	48 8b 4c c7 10       	mov    rcx,QWORD PTR [rdi+rax*8+0x10]
    53cc:	0f 10 04 c7          	movups xmm0,XMMWORD PTR [rdi+rax*8]
    53d0:	0f 11 04 d7          	movups XMMWORD PTR [rdi+rdx*8],xmm0
    53d4:	48 89 4c d7 10       	mov    QWORD PTR [rdi+rdx*8+0x10],rcx
    53d9:	48 8b 4c 24 10       	mov    rcx,QWORD PTR [rsp+0x10]
    53de:	48 89 4c c7 10       	mov    QWORD PTR [rdi+rax*8+0x10],rcx
    53e3:	0f 28 04 24          	movaps xmm0,XMMWORD PTR [rsp]
    53e7:	0f 11 04 c7          	movups XMMWORD PTR [rdi+rax*8],xmm0
    53eb:	89 d8                	mov    eax,ebx
    53ed:	c1 e0 0d             	shl    eax,0xd
    53f0:	31 d8                	xor    eax,ebx
    53f2:	89 c1                	mov    ecx,eax
    53f4:	c1 e9 11             	shr    ecx,0x11
    53f7:	31 c1                	xor    ecx,eax
    53f9:	89 c8                	mov    eax,ecx
    53fb:	c1 e0 05             	shl    eax,0x5
    53fe:	31 c8                	xor    eax,ecx
    5400:	89 c1                	mov    ecx,eax
    5402:	c1 e1 0d             	shl    ecx,0xd
    5405:	31 c1                	xor    ecx,eax
    5407:	48 c1 e0 20          	shl    rax,0x20
    540b:	89 ca                	mov    edx,ecx
    540d:	c1 ea 11             	shr    edx,0x11
    5410:	31 ca                	xor    edx,ecx
    5412:	89 d1                	mov    ecx,edx
    5414:	c1 e1 05             	shl    ecx,0x5
    5417:	31 d1                	xor    ecx,edx
    5419:	48 01 c8             	add    rax,rcx
    541c:	4c 21 c0             	and    rax,r8
    541f:	31 d2                	xor    edx,edx
    5421:	48 39 f0             	cmp    rax,rsi
    5424:	48 0f 43 d6          	cmovae rdx,rsi
    5428:	49 39 f3             	cmp    r11,rsi
    542b:	0f 83 f1 00 00 00    	jae    5522 <_ZN4core5slice4sort14break_patterns17ha71ed1269e778051E+0x1f2>
    5431:	48 29 d0             	sub    rax,rdx
    5434:	48 39 f0             	cmp    rax,rsi
    5437:	0f 83 d3 00 00 00    	jae    5510 <_ZN4core5slice4sort14break_patterns17ha71ed1269e778051E+0x1e0>
    543d:	4b 8d 14 5b          	lea    rdx,[r11+r11*2]
    5441:	48 8d 04 40          	lea    rax,[rax+rax*2]
    5445:	48 8b 5c d7 10       	mov    rbx,QWORD PTR [rdi+rdx*8+0x10]
    544a:	48 89 5c 24 10       	mov    QWORD PTR [rsp+0x10],rbx
    544f:	0f 10 04 d7          	movups xmm0,XMMWORD PTR [rdi+rdx*8]
    5453:	0f 29 04 24          	movaps XMMWORD PTR [rsp],xmm0
    5457:	48 8b 5c c7 10       	mov    rbx,QWORD PTR [rdi+rax*8+0x10]
    545c:	0f 10 04 c7          	movups xmm0,XMMWORD PTR [rdi+rax*8]
    5460:	0f 11 04 d7          	movups XMMWORD PTR [rdi+rdx*8],xmm0
    5464:	48 89 5c d7 10       	mov    QWORD PTR [rdi+rdx*8+0x10],rbx
    5469:	48 8b 54 24 10       	mov    rdx,QWORD PTR [rsp+0x10]
    546e:	48 89 54 c7 10       	mov    QWORD PTR [rdi+rax*8+0x10],rdx
    5473:	0f 28 04 24          	movaps xmm0,XMMWORD PTR [rsp]
    5477:	0f 11 04 c7          	movups XMMWORD PTR [rdi+rax*8],xmm0
    547b:	89 c8                	mov    eax,ecx
    547d:	c1 e0 0d             	shl    eax,0xd
    5480:	31 c8                	xor    eax,ecx
    5482:	89 c1                	mov    ecx,eax
    5484:	c1 e9 11             	shr    ecx,0x11
    5487:	31 c1                	xor    ecx,eax
    5489:	89 c8                	mov    eax,ecx
    548b:	c1 e0 05             	shl    eax,0x5
    548e:	31 c8                	xor    eax,ecx
    5490:	89 c1                	mov    ecx,eax
    5492:	c1 e1 0d             	shl    ecx,0xd
    5495:	31 c1                	xor    ecx,eax
    5497:	48 89 c2             	mov    rdx,rax
    549a:	48 c1 e2 20          	shl    rdx,0x20
    549e:	89 cb                	mov    ebx,ecx
    54a0:	c1 eb 11             	shr    ebx,0x11
    54a3:	31 cb                	xor    ebx,ecx
    54a5:	89 d8                	mov    eax,ebx
    54a7:	c1 e0 05             	shl    eax,0x5
    54aa:	31 d8                	xor    eax,ebx
    54ac:	48 09 d0             	or     rax,rdx
    54af:	4c 21 c0             	and    rax,r8
    54b2:	31 c9                	xor    ecx,ecx
    54b4:	48 39 f0             	cmp    rax,rsi
    54b7:	48 0f 43 ce          	cmovae rcx,rsi
    54bb:	49 83 ca 01          	or     r10,0x1
    54bf:	49 39 f2             	cmp    r10,rsi
    54c2:	73 63                	jae    5527 <_ZN4core5slice4sort14break_patterns17ha71ed1269e778051E+0x1f7>
    54c4:	48 29 c8             	sub    rax,rcx
    54c7:	48 39 f0             	cmp    rax,rsi
    54ca:	73 44                	jae    5510 <_ZN4core5slice4sort14break_patterns17ha71ed1269e778051E+0x1e0>
    54cc:	4b 8d 0c 52          	lea    rcx,[r10+r10*2]
    54d0:	48 8d 04 40          	lea    rax,[rax+rax*2]
    54d4:	48 8b 54 cf 10       	mov    rdx,QWORD PTR [rdi+rcx*8+0x10]
    54d9:	48 89 54 24 10       	mov    QWORD PTR [rsp+0x10],rdx
    54de:	0f 10 04 cf          	movups xmm0,XMMWORD PTR [rdi+rcx*8]
    54e2:	0f 29 04 24          	movaps XMMWORD PTR [rsp],xmm0
    54e6:	48 8b 54 c7 10       	mov    rdx,QWORD PTR [rdi+rax*8+0x10]
    54eb:	0f 10 04 c7          	movups xmm0,XMMWORD PTR [rdi+rax*8]
    54ef:	0f 11 04 cf          	movups XMMWORD PTR [rdi+rcx*8],xmm0
    54f3:	48 89 54 cf 10       	mov    QWORD PTR [rdi+rcx*8+0x10],rdx
    54f8:	48 8b 4c 24 10       	mov    rcx,QWORD PTR [rsp+0x10]
    54fd:	48 89 4c c7 10       	mov    QWORD PTR [rdi+rax*8+0x10],rcx
    5502:	0f 28 04 24          	movaps xmm0,XMMWORD PTR [rsp]
    5506:	0f 11 04 c7          	movups XMMWORD PTR [rdi+rax*8],xmm0
    550a:	48 83 c4 20          	add    rsp,0x20
    550e:	5b                   	pop    rbx
    550f:	c3                   	ret    
    5510:	48 8d 15 b9 1f 24 00 	lea    rdx,[rip+0x241fb9]        # 2474d0 <__init_array_end+0x240>
    5517:	48 89 c7             	mov    rdi,rax
    551a:	ff 15 e0 48 24 00    	call   QWORD PTR [rip+0x2448e0]        # 249e00 <_GLOBAL_OFFSET_TABLE_+0x4a8>
    5520:	0f 0b                	ud2    
    5522:	4d 89 d9             	mov    r9,r11
    5525:	eb 03                	jmp    552a <_ZN4core5slice4sort14break_patterns17ha71ed1269e778051E+0x1fa>
    5527:	4d 89 d1             	mov    r9,r10
    552a:	48 8d 15 87 1f 24 00 	lea    rdx,[rip+0x241f87]        # 2474b8 <__init_array_end+0x228>
    5531:	4c 89 cf             	mov    rdi,r9
    5534:	ff 15 c6 48 24 00    	call   QWORD PTR [rip+0x2448c6]        # 249e00 <_GLOBAL_OFFSET_TABLE_+0x4a8>
    553a:	0f 0b                	ud2    
    553c:	0f 1f 40 00          	nop    DWORD PTR [rax+0x0]

0000000000005540 <_ZN4core5slice4sort22partial_insertion_sort17h3e8f0e36830f40a5E>:
    5540:	55                   	push   rbp
    5541:	41 57                	push   r15
    5543:	41 56                	push   r14
    5545:	41 55                	push   r13
    5547:	41 54                	push   r12
    5549:	53                   	push   rbx
    554a:	48 83 ec 18          	sub    rsp,0x18
    554e:	4c 8d 76 ff          	lea    r14,[rsi-0x1]
    5552:	4c 8d 47 b8          	lea    r8,[rdi-0x48]
    5556:	4c 8d 4f 48          	lea    r9,[rdi+0x48]
    555a:	41 ba 03 00 00 00    	mov    r10d,0x3
    5560:	49 29 f2             	sub    r10,rsi
    5563:	b9 01 00 00 00       	mov    ecx,0x1
    5568:	45 31 db             	xor    r11d,r11d
    556b:	eb 20                	jmp    558d <_ZN4core5slice4sort22partial_insertion_sort17h3e8f0e36830f40a5E+0x4d>
    556d:	48 89 d3             	mov    rbx,rdx
    5570:	48 8d 04 5b          	lea    rax,[rbx+rbx*2]
    5574:	4d 89 64 c5 00       	mov    QWORD PTR [r13+rax*8+0x0],r12
    5579:	0f 28 04 24          	movaps xmm0,XMMWORD PTR [rsp]
    557d:	41 0f 11 44 c5 08    	movups XMMWORD PTR [r13+rax*8+0x8],xmm0
    5583:	49 83 fb 05          	cmp    r11,0x5
    5587:	0f 84 fa 01 00 00    	je     5787 <_ZN4core5slice4sort22partial_insertion_sort17h3e8f0e36830f40a5E+0x247>
    558d:	48 39 f1             	cmp    rcx,rsi
    5590:	73 4e                	jae    55e0 <_ZN4core5slice4sort22partial_insertion_sort17h3e8f0e36830f40a5E+0xa0>
    5592:	48 8d 04 49          	lea    rax,[rcx+rcx*2]
    5596:	48 8b 1c c7          	mov    rbx,QWORD PTR [rdi+rax*8]
    559a:	b2 01                	mov    dl,0x1
    559c:	48 3b 5c c7 e8       	cmp    rbx,QWORD PTR [rdi+rax*8-0x18]
    55a1:	72 3f                	jb     55e2 <_ZN4core5slice4sort22partial_insertion_sort17h3e8f0e36830f40a5E+0xa2>
    55a3:	48 8d 04 c7          	lea    rax,[rdi+rax*8]
    55a7:	66 0f 1f 84 00 00 00 	nop    WORD PTR [rax+rax*1+0x0]
    55ae:	00 00 
    55b0:	49 39 ce             	cmp    r14,rcx
    55b3:	0f 84 bd 01 00 00    	je     5776 <_ZN4core5slice4sort22partial_insertion_sort17h3e8f0e36830f40a5E+0x236>
    55b9:	48 8b 50 18          	mov    rdx,QWORD PTR [rax+0x18]
    55bd:	48 8d 58 18          	lea    rbx,[rax+0x18]
    55c1:	48 83 c1 01          	add    rcx,0x1
    55c5:	48 3b 10             	cmp    rdx,QWORD PTR [rax]
    55c8:	48 89 d8             	mov    rax,rbx
    55cb:	73 e3                	jae    55b0 <_ZN4core5slice4sort22partial_insertion_sort17h3e8f0e36830f40a5E+0x70>
    55cd:	48 39 f1             	cmp    rcx,rsi
    55d0:	0f 92 c2             	setb   dl
    55d3:	eb 0d                	jmp    55e2 <_ZN4core5slice4sort22partial_insertion_sort17h3e8f0e36830f40a5E+0xa2>
    55d5:	66 2e 0f 1f 84 00 00 	nop    WORD PTR cs:[rax+rax*1+0x0]
    55dc:	00 00 00 
    55df:	90                   	nop
    55e0:	31 d2                	xor    edx,edx
    55e2:	48 39 f1             	cmp    rcx,rsi
    55e5:	0f 94 c0             	sete   al
    55e8:	48 83 fe 32          	cmp    rsi,0x32
    55ec:	0f 82 86 01 00 00    	jb     5778 <_ZN4core5slice4sort22partial_insertion_sort17h3e8f0e36830f40a5E+0x238>
    55f2:	48 39 f1             	cmp    rcx,rsi
    55f5:	0f 84 7d 01 00 00    	je     5778 <_ZN4core5slice4sort22partial_insertion_sort17h3e8f0e36830f40a5E+0x238>
    55fb:	48 8d 41 ff          	lea    rax,[rcx-0x1]
    55ff:	48 39 f0             	cmp    rax,rsi
    5602:	0f 83 83 01 00 00    	jae    578b <_ZN4core5slice4sort22partial_insertion_sort17h3e8f0e36830f40a5E+0x24b>
    5608:	84 d2                	test   dl,dl
    560a:	0f 84 8d 01 00 00    	je     579d <_ZN4core5slice4sort22partial_insertion_sort17h3e8f0e36830f40a5E+0x25d>
    5610:	48 8d 04 40          	lea    rax,[rax+rax*2]
    5614:	4c 8d 3c 49          	lea    r15,[rcx+rcx*2]
    5618:	48 8b 54 c7 10       	mov    rdx,QWORD PTR [rdi+rax*8+0x10]
    561d:	48 89 54 24 10       	mov    QWORD PTR [rsp+0x10],rdx
    5622:	0f 10 04 c7          	movups xmm0,XMMWORD PTR [rdi+rax*8]
    5626:	0f 29 04 24          	movaps XMMWORD PTR [rsp],xmm0
    562a:	4a 8b 54 ff 10       	mov    rdx,QWORD PTR [rdi+r15*8+0x10]
    562f:	48 89 54 c7 10       	mov    QWORD PTR [rdi+rax*8+0x10],rdx
    5634:	42 0f 10 04 ff       	movups xmm0,XMMWORD PTR [rdi+r15*8]
    5639:	0f 11 04 c7          	movups XMMWORD PTR [rdi+rax*8],xmm0
    563d:	48 8b 54 24 10       	mov    rdx,QWORD PTR [rsp+0x10]
    5642:	4a 89 54 ff 10       	mov    QWORD PTR [rdi+r15*8+0x10],rdx
    5647:	0f 28 04 24          	movaps xmm0,XMMWORD PTR [rsp]
    564b:	42 0f 11 04 ff       	movups XMMWORD PTR [rdi+r15*8],xmm0
    5650:	48 83 f9 02          	cmp    rcx,0x2
    5654:	72 7e                	jb     56d4 <_ZN4core5slice4sort22partial_insertion_sort17h3e8f0e36830f40a5E+0x194>
    5656:	4c 8d 24 c7          	lea    r12,[rdi+rax*8]
    565a:	48 8d 59 fe          	lea    rbx,[rcx-0x2]
    565e:	4c 8d 2c 5b          	lea    r13,[rbx+rbx*2]
    5662:	49 8b 2c 24          	mov    rbp,QWORD PTR [r12]
    5666:	4a 3b 2c ef          	cmp    rbp,QWORD PTR [rdi+r13*8]
    566a:	73 68                	jae    56d4 <_ZN4core5slice4sort22partial_insertion_sort17h3e8f0e36830f40a5E+0x194>
    566c:	4e 8d 2c ef          	lea    r13,[rdi+r13*8]
    5670:	0f 10 44 c7 08       	movups xmm0,XMMWORD PTR [rdi+rax*8+0x8]
    5675:	0f 29 04 24          	movaps XMMWORD PTR [rsp],xmm0
    5679:	49 8b 45 10          	mov    rax,QWORD PTR [r13+0x10]
    567d:	49 89 44 24 10       	mov    QWORD PTR [r12+0x10],rax
    5682:	41 0f 10 45 00       	movups xmm0,XMMWORD PTR [r13+0x0]
    5687:	41 0f 11 04 24       	movups XMMWORD PTR [r12],xmm0
    568c:	48 85 db             	test   rbx,rbx
    568f:	74 30                	je     56c1 <_ZN4core5slice4sort22partial_insertion_sort17h3e8f0e36830f40a5E+0x181>
    5691:	4b 8d 04 f8          	lea    rax,[r8+r15*8]
    5695:	66 2e 0f 1f 84 00 00 	nop    WORD PTR cs:[rax+rax*1+0x0]
    569c:	00 00 00 
    569f:	90                   	nop
    56a0:	48 3b 28             	cmp    rbp,QWORD PTR [rax]
    56a3:	73 1e                	jae    56c3 <_ZN4core5slice4sort22partial_insertion_sort17h3e8f0e36830f40a5E+0x183>
    56a5:	48 83 c3 ff          	add    rbx,0xffffffffffffffff
    56a9:	48 8b 50 10          	mov    rdx,QWORD PTR [rax+0x10]
    56ad:	48 89 50 28          	mov    QWORD PTR [rax+0x28],rdx
    56b1:	0f 10 00             	movups xmm0,XMMWORD PTR [rax]
    56b4:	0f 11 40 18          	movups XMMWORD PTR [rax+0x18],xmm0
    56b8:	48 83 c0 e8          	add    rax,0xffffffffffffffe8
    56bc:	48 85 db             	test   rbx,rbx
    56bf:	75 df                	jne    56a0 <_ZN4core5slice4sort22partial_insertion_sort17h3e8f0e36830f40a5E+0x160>
    56c1:	31 db                	xor    ebx,ebx
    56c3:	48 8d 04 5b          	lea    rax,[rbx+rbx*2]
    56c7:	48 89 2c c7          	mov    QWORD PTR [rdi+rax*8],rbp
    56cb:	0f 28 04 24          	movaps xmm0,XMMWORD PTR [rsp]
    56cf:	0f 11 44 c7 08       	movups XMMWORD PTR [rdi+rax*8+0x8],xmm0
    56d4:	49 83 c3 01          	add    r11,0x1
    56d8:	48 89 f0             	mov    rax,rsi
    56db:	48 29 c8             	sub    rax,rcx
    56de:	48 83 f8 02          	cmp    rax,0x2
    56e2:	0f 82 9b fe ff ff    	jb     5583 <_ZN4core5slice4sort22partial_insertion_sort17h3e8f0e36830f40a5E+0x43>
    56e8:	4e 8d 2c ff          	lea    r13,[rdi+r15*8]
    56ec:	4d 8b 65 00          	mov    r12,QWORD PTR [r13+0x0]
    56f0:	4d 39 65 18          	cmp    QWORD PTR [r13+0x18],r12
    56f4:	0f 83 89 fe ff ff    	jae    5583 <_ZN4core5slice4sort22partial_insertion_sort17h3e8f0e36830f40a5E+0x43>
    56fa:	49 8d 55 18          	lea    rdx,[r13+0x18]
    56fe:	42 0f 10 44 ff 08    	movups xmm0,XMMWORD PTR [rdi+r15*8+0x8]
    5704:	0f 29 04 24          	movaps XMMWORD PTR [rsp],xmm0
    5708:	48 8b 5a 10          	mov    rbx,QWORD PTR [rdx+0x10]
    570c:	49 89 5d 10          	mov    QWORD PTR [r13+0x10],rbx
    5710:	0f 10 02             	movups xmm0,XMMWORD PTR [rdx]
    5713:	41 0f 11 45 00       	movups XMMWORD PTR [r13+0x0],xmm0
    5718:	bb 01 00 00 00       	mov    ebx,0x1
    571d:	48 83 f8 03          	cmp    rax,0x3
    5721:	0f 82 49 fe ff ff    	jb     5570 <_ZN4core5slice4sort22partial_insertion_sort17h3e8f0e36830f40a5E+0x30>
    5727:	4d 39 65 30          	cmp    QWORD PTR [r13+0x30],r12
    572b:	0f 83 3f fe ff ff    	jae    5570 <_ZN4core5slice4sort22partial_insertion_sort17h3e8f0e36830f40a5E+0x30>
    5731:	4b 8d 04 f9          	lea    rax,[r9+r15*8]
    5735:	4d 8d 3c 0a          	lea    r15,[r10+rcx*1]
    5739:	ba 02 00 00 00       	mov    edx,0x2
    573e:	66 90                	xchg   ax,ax
    5740:	49 8d 1c 17          	lea    rbx,[r15+rdx*1]
    5744:	48 8b 68 f8          	mov    rbp,QWORD PTR [rax-0x8]
    5748:	48 89 68 e0          	mov    QWORD PTR [rax-0x20],rbp
    574c:	0f 10 40 e8          	movups xmm0,XMMWORD PTR [rax-0x18]
    5750:	0f 11 40 d0          	movups XMMWORD PTR [rax-0x30],xmm0
    5754:	48 83 fb 02          	cmp    rbx,0x2
    5758:	0f 84 0f fe ff ff    	je     556d <_ZN4core5slice4sort22partial_insertion_sort17h3e8f0e36830f40a5E+0x2d>
    575e:	48 8d 68 18          	lea    rbp,[rax+0x18]
    5762:	48 89 d3             	mov    rbx,rdx
    5765:	48 83 c2 01          	add    rdx,0x1
    5769:	4c 39 20             	cmp    QWORD PTR [rax],r12
    576c:	48 89 e8             	mov    rax,rbp
    576f:	72 cf                	jb     5740 <_ZN4core5slice4sort22partial_insertion_sort17h3e8f0e36830f40a5E+0x200>
    5771:	e9 fa fd ff ff       	jmp    5570 <_ZN4core5slice4sort22partial_insertion_sort17h3e8f0e36830f40a5E+0x30>
    5776:	b0 01                	mov    al,0x1
    5778:	48 83 c4 18          	add    rsp,0x18
    577c:	5b                   	pop    rbx
    577d:	41 5c                	pop    r12
    577f:	41 5d                	pop    r13
    5781:	41 5e                	pop    r14
    5783:	41 5f                	pop    r15
    5785:	5d                   	pop    rbp
    5786:	c3                   	ret    
    5787:	31 c0                	xor    eax,eax
    5789:	eb ed                	jmp    5778 <_ZN4core5slice4sort22partial_insertion_sort17h3e8f0e36830f40a5E+0x238>
    578b:	48 8d 15 26 1d 24 00 	lea    rdx,[rip+0x241d26]        # 2474b8 <__init_array_end+0x228>
    5792:	48 89 c7             	mov    rdi,rax
    5795:	ff 15 65 46 24 00    	call   QWORD PTR [rip+0x244665]        # 249e00 <_GLOBAL_OFFSET_TABLE_+0x4a8>
    579b:	0f 0b                	ud2    
    579d:	48 8d 15 2c 1d 24 00 	lea    rdx,[rip+0x241d2c]        # 2474d0 <__init_array_end+0x240>
    57a4:	48 89 cf             	mov    rdi,rcx
    57a7:	ff 15 53 46 24 00    	call   QWORD PTR [rip+0x244653]        # 249e00 <_GLOBAL_OFFSET_TABLE_+0x4a8>
    57ad:	0f 0b                	ud2    
    57af:	90                   	nop

00000000000057b0 <_ZN4core5slice4sort8heapsort17h74709d242f9c8cb9E>:
    57b0:	48 83 ec 18          	sub    rsp,0x18
    57b4:	48 83 fe 02          	cmp    rsi,0x2
    57b8:	0f 82 ff 01 00 00    	jb     59bd <_ZN4core5slice4sort8heapsort17h74709d242f9c8cb9E+0x20d>
    57be:	49 89 f1             	mov    r9,rsi
    57c1:	49 d1 e9             	shr    r9,1
    57c4:	eb 13                	jmp    57d9 <_ZN4core5slice4sort8heapsort17h74709d242f9c8cb9E+0x29>
    57c6:	66 2e 0f 1f 84 00 00 	nop    WORD PTR cs:[rax+rax*1+0x0]
    57cd:	00 00 00 
    57d0:	4d 85 c9             	test   r9,r9
    57d3:	0f 84 bc 00 00 00    	je     5895 <_ZN4core5slice4sort8heapsort17h74709d242f9c8cb9E+0xe5>
    57d9:	49 83 c1 ff          	add    r9,0xffffffffffffffff
    57dd:	4c 89 c9             	mov    rcx,r9
    57e0:	4c 8d 04 09          	lea    r8,[rcx+rcx*1]
    57e4:	49 83 c0 01          	add    r8,0x1
    57e8:	48 8d 04 09          	lea    rax,[rcx+rcx*1]
    57ec:	48 83 c0 02          	add    rax,0x2
    57f0:	48 39 f0             	cmp    rax,rsi
    57f3:	73 2c                	jae    5821 <_ZN4core5slice4sort8heapsort17h74709d242f9c8cb9E+0x71>
    57f5:	66 2e 0f 1f 84 00 00 	nop    WORD PTR cs:[rax+rax*1+0x0]
    57fc:	00 00 00 
    57ff:	90                   	nop
    5800:	49 39 f0             	cmp    r8,rsi
    5803:	0f 83 cb 01 00 00    	jae    59d4 <_ZN4core5slice4sort8heapsort17h74709d242f9c8cb9E+0x224>
    5809:	4b 8d 14 40          	lea    rdx,[r8+r8*2]
    580d:	4c 8b 14 d7          	mov    r10,QWORD PTR [rdi+rdx*8]
    5811:	48 8d 14 40          	lea    rdx,[rax+rax*2]
    5815:	4c 3b 14 d7          	cmp    r10,QWORD PTR [rdi+rdx*8]
    5819:	72 03                	jb     581e <_ZN4core5slice4sort8heapsort17h74709d242f9c8cb9E+0x6e>
    581b:	4c 89 c0             	mov    rax,r8
    581e:	49 89 c0             	mov    r8,rax
    5821:	49 39 f0             	cmp    r8,rsi
    5824:	73 aa                	jae    57d0 <_ZN4core5slice4sort8heapsort17h74709d242f9c8cb9E+0x20>
    5826:	48 39 f1             	cmp    rcx,rsi
    5829:	0f 83 93 01 00 00    	jae    59c2 <_ZN4core5slice4sort8heapsort17h74709d242f9c8cb9E+0x212>
    582f:	48 8d 0c 49          	lea    rcx,[rcx+rcx*2]
    5833:	48 8b 14 cf          	mov    rdx,QWORD PTR [rdi+rcx*8]
    5837:	4b 8d 04 40          	lea    rax,[r8+r8*2]
    583b:	48 3b 14 c7          	cmp    rdx,QWORD PTR [rdi+rax*8]
    583f:	73 8f                	jae    57d0 <_ZN4core5slice4sort8heapsort17h74709d242f9c8cb9E+0x20>
    5841:	48 8b 54 cf 10       	mov    rdx,QWORD PTR [rdi+rcx*8+0x10]
    5846:	48 89 54 24 10       	mov    QWORD PTR [rsp+0x10],rdx
    584b:	0f 10 04 cf          	movups xmm0,XMMWORD PTR [rdi+rcx*8]
    584f:	0f 29 04 24          	movaps XMMWORD PTR [rsp],xmm0
    5853:	48 8b 54 c7 10       	mov    rdx,QWORD PTR [rdi+rax*8+0x10]
    5858:	0f 10 04 c7          	movups xmm0,XMMWORD PTR [rdi+rax*8]
    585c:	0f 11 04 cf          	movups XMMWORD PTR [rdi+rcx*8],xmm0
    5860:	48 89 54 cf 10       	mov    QWORD PTR [rdi+rcx*8+0x10],rdx
    5865:	48 8b 4c 24 10       	mov    rcx,QWORD PTR [rsp+0x10]
    586a:	48 89 4c c7 10       	mov    QWORD PTR [rdi+rax*8+0x10],rcx
    586f:	0f 28 04 24          	movaps xmm0,XMMWORD PTR [rsp]
    5873:	0f 11 04 c7          	movups XMMWORD PTR [rdi+rax*8],xmm0
    5877:	4c 89 c1             	mov    rcx,r8
    587a:	4c 8d 04 09          	lea    r8,[rcx+rcx*1]
    587e:	49 83 c0 01          	add    r8,0x1
    5882:	48 8d 04 09          	lea    rax,[rcx+rcx*1]
    5886:	48 83 c0 02          	add    rax,0x2
    588a:	48 39 f0             	cmp    rax,rsi
    588d:	0f 82 6d ff ff ff    	jb     5800 <_ZN4core5slice4sort8heapsort17h74709d242f9c8cb9E+0x50>
    5893:	eb 8c                	jmp    5821 <_ZN4core5slice4sort8heapsort17h74709d242f9c8cb9E+0x71>
    5895:	48 83 fe 02          	cmp    rsi,0x2
    5899:	0f 82 1e 01 00 00    	jb     59bd <_ZN4core5slice4sort8heapsort17h74709d242f9c8cb9E+0x20d>
    589f:	49 89 f0             	mov    r8,rsi
    58a2:	eb 16                	jmp    58ba <_ZN4core5slice4sort8heapsort17h74709d242f9c8cb9E+0x10a>
    58a4:	66 2e 0f 1f 84 00 00 	nop    WORD PTR cs:[rax+rax*1+0x0]
    58ab:	00 00 00 
    58ae:	66 90                	xchg   ax,ax
    58b0:	49 83 f8 01          	cmp    r8,0x1
    58b4:	0f 86 03 01 00 00    	jbe    59bd <_ZN4core5slice4sort8heapsort17h74709d242f9c8cb9E+0x20d>
    58ba:	49 83 c0 ff          	add    r8,0xffffffffffffffff
    58be:	49 39 f0             	cmp    r8,rsi
    58c1:	0f 83 49 01 00 00    	jae    5a10 <_ZN4core5slice4sort8heapsort17h74709d242f9c8cb9E+0x260>
    58c7:	4b 8d 04 40          	lea    rax,[r8+r8*2]
    58cb:	48 8b 4f 10          	mov    rcx,QWORD PTR [rdi+0x10]
    58cf:	48 89 4c 24 10       	mov    QWORD PTR [rsp+0x10],rcx
    58d4:	0f 10 07             	movups xmm0,XMMWORD PTR [rdi]
    58d7:	0f 29 04 24          	movaps XMMWORD PTR [rsp],xmm0
    58db:	48 8b 4c c7 10       	mov    rcx,QWORD PTR [rdi+rax*8+0x10]
    58e0:	0f 10 04 c7          	movups xmm0,XMMWORD PTR [rdi+rax*8]
    58e4:	0f 11 07             	movups XMMWORD PTR [rdi],xmm0
    58e7:	48 89 4f 10          	mov    QWORD PTR [rdi+0x10],rcx
    58eb:	48 8b 4c 24 10       	mov    rcx,QWORD PTR [rsp+0x10]
    58f0:	48 89 4c c7 10       	mov    QWORD PTR [rdi+rax*8+0x10],rcx
    58f5:	0f 28 04 24          	movaps xmm0,XMMWORD PTR [rsp]
    58f9:	0f 11 04 c7          	movups XMMWORD PTR [rdi+rax*8],xmm0
    58fd:	31 c9                	xor    ecx,ecx
    58ff:	4c 8d 0c 09          	lea    r9,[rcx+rcx*1]
    5903:	49 83 c1 01          	add    r9,0x1
    5907:	48 8d 14 09          	lea    rdx,[rcx+rcx*1]
    590b:	48 83 c2 02          	add    rdx,0x2
    590f:	4c 39 c2             	cmp    rdx,r8
    5912:	73 2d                	jae    5941 <_ZN4core5slice4sort8heapsort17h74709d242f9c8cb9E+0x191>
    5914:	66 2e 0f 1f 84 00 00 	nop    WORD PTR cs:[rax+rax*1+0x0]
    591b:	00 00 00 
    591e:	66 90                	xchg   ax,ax
    5920:	4d 39 c1             	cmp    r9,r8
    5923:	0f 83 d2 00 00 00    	jae    59fb <_ZN4core5slice4sort8heapsort17h74709d242f9c8cb9E+0x24b>
    5929:	4b 8d 04 49          	lea    rax,[r9+r9*2]
    592d:	4c 8b 14 c7          	mov    r10,QWORD PTR [rdi+rax*8]
    5931:	48 8d 04 52          	lea    rax,[rdx+rdx*2]
    5935:	4c 3b 14 c7          	cmp    r10,QWORD PTR [rdi+rax*8]
    5939:	72 03                	jb     593e <_ZN4core5slice4sort8heapsort17h74709d242f9c8cb9E+0x18e>
    593b:	4c 89 ca             	mov    rdx,r9
    593e:	49 89 d1             	mov    r9,rdx
    5941:	4d 39 c1             	cmp    r9,r8
    5944:	0f 83 66 ff ff ff    	jae    58b0 <_ZN4core5slice4sort8heapsort17h74709d242f9c8cb9E+0x100>
    594a:	4c 39 c1             	cmp    rcx,r8
    594d:	0f 83 93 00 00 00    	jae    59e6 <_ZN4core5slice4sort8heapsort17h74709d242f9c8cb9E+0x236>
    5953:	48 8d 14 49          	lea    rdx,[rcx+rcx*2]
    5957:	48 8b 04 d7          	mov    rax,QWORD PTR [rdi+rdx*8]
    595b:	4b 8d 0c 49          	lea    rcx,[r9+r9*2]
    595f:	48 3b 04 cf          	cmp    rax,QWORD PTR [rdi+rcx*8]
    5963:	0f 83 47 ff ff ff    	jae    58b0 <_ZN4core5slice4sort8heapsort17h74709d242f9c8cb9E+0x100>
    5969:	48 8b 44 d7 10       	mov    rax,QWORD PTR [rdi+rdx*8+0x10]
    596e:	48 89 44 24 10       	mov    QWORD PTR [rsp+0x10],rax
    5973:	0f 10 04 d7          	movups xmm0,XMMWORD PTR [rdi+rdx*8]
    5977:	0f 29 04 24          	movaps XMMWORD PTR [rsp],xmm0
    597b:	48 8b 44 cf 10       	mov    rax,QWORD PTR [rdi+rcx*8+0x10]
    5980:	0f 10 04 cf          	movups xmm0,XMMWORD PTR [rdi+rcx*8]
    5984:	0f 11 04 d7          	movups XMMWORD PTR [rdi+rdx*8],xmm0
    5988:	48 89 44 d7 10       	mov    QWORD PTR [rdi+rdx*8+0x10],rax
    598d:	48 8b 44 24 10       	mov    rax,QWORD PTR [rsp+0x10]
    5992:	48 89 44 cf 10       	mov    QWORD PTR [rdi+rcx*8+0x10],rax
    5997:	0f 28 04 24          	movaps xmm0,XMMWORD PTR [rsp]
    599b:	0f 11 04 cf          	movups XMMWORD PTR [rdi+rcx*8],xmm0
    599f:	4c 89 c9             	mov    rcx,r9
    59a2:	4c 8d 0c 09          	lea    r9,[rcx+rcx*1]
    59a6:	49 83 c1 01          	add    r9,0x1
    59aa:	48 8d 14 09          	lea    rdx,[rcx+rcx*1]
    59ae:	48 83 c2 02          	add    rdx,0x2
    59b2:	4c 39 c2             	cmp    rdx,r8
    59b5:	0f 82 65 ff ff ff    	jb     5920 <_ZN4core5slice4sort8heapsort17h74709d242f9c8cb9E+0x170>
    59bb:	eb 84                	jmp    5941 <_ZN4core5slice4sort8heapsort17h74709d242f9c8cb9E+0x191>
    59bd:	48 83 c4 18          	add    rsp,0x18
    59c1:	c3                   	ret    
    59c2:	48 8d 15 7f 1b 24 00 	lea    rdx,[rip+0x241b7f]        # 247548 <__init_array_end+0x2b8>
    59c9:	48 89 cf             	mov    rdi,rcx
    59cc:	ff 15 2e 44 24 00    	call   QWORD PTR [rip+0x24442e]        # 249e00 <_GLOBAL_OFFSET_TABLE_+0x4a8>
    59d2:	0f 0b                	ud2    
    59d4:	48 8d 15 55 1b 24 00 	lea    rdx,[rip+0x241b55]        # 247530 <__init_array_end+0x2a0>
    59db:	4c 89 c7             	mov    rdi,r8
    59de:	ff 15 1c 44 24 00    	call   QWORD PTR [rip+0x24441c]        # 249e00 <_GLOBAL_OFFSET_TABLE_+0x4a8>
    59e4:	0f 0b                	ud2    
    59e6:	48 8d 15 5b 1b 24 00 	lea    rdx,[rip+0x241b5b]        # 247548 <__init_array_end+0x2b8>
    59ed:	48 89 cf             	mov    rdi,rcx
    59f0:	4c 89 c6             	mov    rsi,r8
    59f3:	ff 15 07 44 24 00    	call   QWORD PTR [rip+0x244407]        # 249e00 <_GLOBAL_OFFSET_TABLE_+0x4a8>
    59f9:	0f 0b                	ud2    
    59fb:	48 8d 15 2e 1b 24 00 	lea    rdx,[rip+0x241b2e]        # 247530 <__init_array_end+0x2a0>
    5a02:	4c 89 cf             	mov    rdi,r9
    5a05:	4c 89 c6             	mov    rsi,r8
    5a08:	ff 15 f2 43 24 00    	call   QWORD PTR [rip+0x2443f2]        # 249e00 <_GLOBAL_OFFSET_TABLE_+0x4a8>
    5a0e:	0f 0b                	ud2    
    5a10:	48 8d 15 b9 1a 24 00 	lea    rdx,[rip+0x241ab9]        # 2474d0 <__init_array_end+0x240>
    5a17:	4c 89 c7             	mov    rdi,r8
    5a1a:	ff 15 e0 43 24 00    	call   QWORD PTR [rip+0x2443e0]        # 249e00 <_GLOBAL_OFFSET_TABLE_+0x4a8>
    5a20:	0f 0b                	ud2    
    5a22:	66 2e 0f 1f 84 00 00 	nop    WORD PTR cs:[rax+rax*1+0x0]
    5a29:	00 00 00 
    5a2c:	0f 1f 40 00          	nop    DWORD PTR [rax+0x0]

0000000000005a30 <_ZN4core9panicking13assert_failed17haa2b2e0d5c4cf1b8E>:
    5a30:	48 83 ec 58          	sub    rsp,0x58
    5a34:	48 89 7c 24 10       	mov    QWORD PTR [rsp+0x10],rdi
    5a39:	48 89 74 24 18       	mov    QWORD PTR [rsp+0x18],rsi
    5a3e:	0f 10 02             	movups xmm0,XMMWORD PTR [rdx]
    5a41:	0f 10 4a 10          	movups xmm1,XMMWORD PTR [rdx+0x10]
    5a45:	0f 10 52 20          	movups xmm2,XMMWORD PTR [rdx+0x20]
    5a49:	0f 29 54 24 40       	movaps XMMWORD PTR [rsp+0x40],xmm2
    5a4e:	0f 29 4c 24 30       	movaps XMMWORD PTR [rsp+0x30],xmm1
    5a53:	0f 29 44 24 20       	movaps XMMWORD PTR [rsp+0x20],xmm0
    5a58:	48 89 0c 24          	mov    QWORD PTR [rsp],rcx
    5a5c:	48 8d 15 b5 1b 24 00 	lea    rdx,[rip+0x241bb5]        # 247618 <__init_array_end+0x388>
    5a63:	48 8d 74 24 10       	lea    rsi,[rsp+0x10]
    5a68:	48 8d 4c 24 18       	lea    rcx,[rsp+0x18]
    5a6d:	4c 8d 4c 24 20       	lea    r9,[rsp+0x20]
    5a72:	31 ff                	xor    edi,edi
    5a74:	49 89 d0             	mov    r8,rdx
    5a77:	ff 15 cb 44 24 00    	call   QWORD PTR [rip+0x2444cb]        # 249f48 <_GLOBAL_OFFSET_TABLE_+0x5f0>
    5a7d:	0f 0b                	ud2    
    5a7f:	90                   	nop

0000000000005a80 <_ZN4core9panicking13assert_failed17hc9897204e51d6aa7E>:
    5a80:	48 83 ec 58          	sub    rsp,0x58
    5a84:	48 89 74 24 10       	mov    QWORD PTR [rsp+0x10],rsi
    5a89:	48 89 54 24 18       	mov    QWORD PTR [rsp+0x18],rdx
    5a8e:	0f 10 01             	movups xmm0,XMMWORD PTR [rcx]
    5a91:	0f 10 49 10          	movups xmm1,XMMWORD PTR [rcx+0x10]
    5a95:	0f 10 51 20          	movups xmm2,XMMWORD PTR [rcx+0x20]
    5a99:	0f 29 54 24 40       	movaps XMMWORD PTR [rsp+0x40],xmm2
    5a9e:	0f 29 4c 24 30       	movaps XMMWORD PTR [rsp+0x30],xmm1
    5aa3:	0f 29 44 24 20       	movaps XMMWORD PTR [rsp+0x20],xmm0
    5aa8:	4c 89 04 24          	mov    QWORD PTR [rsp],r8
    5aac:	48 8d 15 85 1b 24 00 	lea    rdx,[rip+0x241b85]        # 247638 <__init_array_end+0x3a8>
    5ab3:	48 8d 74 24 10       	lea    rsi,[rsp+0x10]
    5ab8:	48 8d 4c 24 18       	lea    rcx,[rsp+0x18]
    5abd:	4c 8d 4c 24 20       	lea    r9,[rsp+0x20]
    5ac2:	49 89 d0             	mov    r8,rdx
    5ac5:	ff 15 7d 44 24 00    	call   QWORD PTR [rip+0x24447d]        # 249f48 <_GLOBAL_OFFSET_TABLE_+0x5f0>
    5acb:	0f 0b                	ud2    
    5acd:	0f 1f 00             	nop    DWORD PTR [rax]

0000000000005ad0 <_ZN5alloc7raw_vec19RawVec$LT$T$C$A$GT$7reserve21do_reserve_and_handle17h07074acfb8272721E>:
    5ad0:	41 56                	push   r14
    5ad2:	53                   	push   rbx
    5ad3:	48 83 ec 38          	sub    rsp,0x38
    5ad7:	48 ff c6             	inc    rsi
    5ada:	0f 84 9d 00 00 00    	je     5b7d <_ZN5alloc7raw_vec19RawVec$LT$T$C$A$GT$7reserve21do_reserve_and_handle17h07074acfb8272721E+0xad>
    5ae0:	49 89 fe             	mov    r14,rdi
    5ae3:	48 8b 4f 08          	mov    rcx,QWORD PTR [rdi+0x8]
    5ae7:	48 8d 04 09          	lea    rax,[rcx+rcx*1]
    5aeb:	48 39 f0             	cmp    rax,rsi
    5aee:	48 0f 47 f0          	cmova  rsi,rax
    5af2:	48 83 fe 05          	cmp    rsi,0x5
    5af6:	b8 04 00 00 00       	mov    eax,0x4
    5afb:	48 0f 43 c6          	cmovae rax,rsi
    5aff:	ba 08 00 00 00       	mov    edx,0x8
    5b04:	31 db                	xor    ebx,ebx
    5b06:	48 f7 e2             	mul    rdx
    5b09:	0f 91 c3             	setno  bl
    5b0c:	48 c1 e3 03          	shl    rbx,0x3
    5b10:	48 85 c9             	test   rcx,rcx
    5b13:	74 1c                	je     5b31 <_ZN5alloc7raw_vec19RawVec$LT$T$C$A$GT$7reserve21do_reserve_and_handle17h07074acfb8272721E+0x61>
    5b15:	49 8b 16             	mov    rdx,QWORD PTR [r14]
    5b18:	48 c1 e1 03          	shl    rcx,0x3
    5b1c:	48 89 54 24 20       	mov    QWORD PTR [rsp+0x20],rdx
    5b21:	48 89 4c 24 28       	mov    QWORD PTR [rsp+0x28],rcx
    5b26:	48 c7 44 24 30 08 00 	mov    QWORD PTR [rsp+0x30],0x8
    5b2d:	00 00 
    5b2f:	eb 09                	jmp    5b3a <_ZN5alloc7raw_vec19RawVec$LT$T$C$A$GT$7reserve21do_reserve_and_handle17h07074acfb8272721E+0x6a>
    5b31:	48 c7 44 24 20 00 00 	mov    QWORD PTR [rsp+0x20],0x0
    5b38:	00 00 
    5b3a:	48 8d 7c 24 08       	lea    rdi,[rsp+0x8]
    5b3f:	48 8d 4c 24 20       	lea    rcx,[rsp+0x20]
    5b44:	48 89 c6             	mov    rsi,rax
    5b47:	48 89 da             	mov    rdx,rbx
    5b4a:	e8 41 61 00 00       	call   bc90 <_ZN5alloc7raw_vec11finish_grow17h0bc65d5867018d57E>
    5b4f:	83 7c 24 08 01       	cmp    DWORD PTR [rsp+0x8],0x1
    5b54:	74 1d                	je     5b73 <_ZN5alloc7raw_vec19RawVec$LT$T$C$A$GT$7reserve21do_reserve_and_handle17h07074acfb8272721E+0xa3>
    5b56:	48 8b 44 24 10       	mov    rax,QWORD PTR [rsp+0x10]
    5b5b:	48 8b 4c 24 18       	mov    rcx,QWORD PTR [rsp+0x18]
    5b60:	49 89 06             	mov    QWORD PTR [r14],rax
    5b63:	48 c1 e9 03          	shr    rcx,0x3
    5b67:	49 89 4e 08          	mov    QWORD PTR [r14+0x8],rcx
    5b6b:	48 83 c4 38          	add    rsp,0x38
    5b6f:	5b                   	pop    rbx
    5b70:	41 5e                	pop    r14
    5b72:	c3                   	ret    
    5b73:	48 8b 74 24 18       	mov    rsi,QWORD PTR [rsp+0x18]
    5b78:	48 85 f6             	test   rsi,rsi
    5b7b:	75 08                	jne    5b85 <_ZN5alloc7raw_vec19RawVec$LT$T$C$A$GT$7reserve21do_reserve_and_handle17h07074acfb8272721E+0xb5>
    5b7d:	ff 15 ed 3e 24 00    	call   QWORD PTR [rip+0x243eed]        # 249a70 <_GLOBAL_OFFSET_TABLE_+0x118>
    5b83:	0f 0b                	ud2    
    5b85:	48 8b 7c 24 10       	mov    rdi,QWORD PTR [rsp+0x10]
    5b8a:	ff 15 f8 3f 24 00    	call   QWORD PTR [rip+0x243ff8]        # 249b88 <_GLOBAL_OFFSET_TABLE_+0x230>
    5b90:	0f 0b                	ud2    
    5b92:	66 2e 0f 1f 84 00 00 	nop    WORD PTR cs:[rax+rax*1+0x0]
    5b99:	00 00 00 
    5b9c:	0f 1f 40 00          	nop    DWORD PTR [rax+0x0]

0000000000005ba0 <_ZN5alloc7raw_vec19RawVec$LT$T$C$A$GT$7reserve21do_reserve_and_handle17h1bcfd82ef9b8b019E>:
    5ba0:	41 56                	push   r14
    5ba2:	53                   	push   rbx
    5ba3:	48 83 ec 38          	sub    rsp,0x38
    5ba7:	48 ff c6             	inc    rsi
    5baa:	0f 84 9d 00 00 00    	je     5c4d <_ZN5alloc7raw_vec19RawVec$LT$T$C$A$GT$7reserve21do_reserve_and_handle17h1bcfd82ef9b8b019E+0xad>
    5bb0:	49 89 fe             	mov    r14,rdi
    5bb3:	48 8b 4f 08          	mov    rcx,QWORD PTR [rdi+0x8]
    5bb7:	48 8d 04 09          	lea    rax,[rcx+rcx*1]
    5bbb:	48 39 f0             	cmp    rax,rsi
    5bbe:	48 0f 47 f0          	cmova  rsi,rax
    5bc2:	48 83 fe 05          	cmp    rsi,0x5
    5bc6:	b8 04 00 00 00       	mov    eax,0x4
    5bcb:	48 0f 43 c6          	cmovae rax,rsi
    5bcf:	ba 10 00 00 00       	mov    edx,0x10
    5bd4:	31 db                	xor    ebx,ebx
    5bd6:	48 f7 e2             	mul    rdx
    5bd9:	0f 91 c3             	setno  bl
    5bdc:	48 c1 e3 03          	shl    rbx,0x3
    5be0:	48 85 c9             	test   rcx,rcx
    5be3:	74 1c                	je     5c01 <_ZN5alloc7raw_vec19RawVec$LT$T$C$A$GT$7reserve21do_reserve_and_handle17h1bcfd82ef9b8b019E+0x61>
    5be5:	49 8b 16             	mov    rdx,QWORD PTR [r14]
    5be8:	48 c1 e1 04          	shl    rcx,0x4
    5bec:	48 89 54 24 20       	mov    QWORD PTR [rsp+0x20],rdx
    5bf1:	48 89 4c 24 28       	mov    QWORD PTR [rsp+0x28],rcx
    5bf6:	48 c7 44 24 30 08 00 	mov    QWORD PTR [rsp+0x30],0x8
    5bfd:	00 00 
    5bff:	eb 09                	jmp    5c0a <_ZN5alloc7raw_vec19RawVec$LT$T$C$A$GT$7reserve21do_reserve_and_handle17h1bcfd82ef9b8b019E+0x6a>
    5c01:	48 c7 44 24 20 00 00 	mov    QWORD PTR [rsp+0x20],0x0
    5c08:	00 00 
    5c0a:	48 8d 7c 24 08       	lea    rdi,[rsp+0x8]
    5c0f:	48 8d 4c 24 20       	lea    rcx,[rsp+0x20]
    5c14:	48 89 c6             	mov    rsi,rax
    5c17:	48 89 da             	mov    rdx,rbx
    5c1a:	e8 71 60 00 00       	call   bc90 <_ZN5alloc7raw_vec11finish_grow17h0bc65d5867018d57E>
    5c1f:	83 7c 24 08 01       	cmp    DWORD PTR [rsp+0x8],0x1
    5c24:	74 1d                	je     5c43 <_ZN5alloc7raw_vec19RawVec$LT$T$C$A$GT$7reserve21do_reserve_and_handle17h1bcfd82ef9b8b019E+0xa3>
    5c26:	48 8b 44 24 10       	mov    rax,QWORD PTR [rsp+0x10]
    5c2b:	48 8b 4c 24 18       	mov    rcx,QWORD PTR [rsp+0x18]
    5c30:	49 89 06             	mov    QWORD PTR [r14],rax
    5c33:	48 c1 e9 04          	shr    rcx,0x4
    5c37:	49 89 4e 08          	mov    QWORD PTR [r14+0x8],rcx
    5c3b:	48 83 c4 38          	add    rsp,0x38
    5c3f:	5b                   	pop    rbx
    5c40:	41 5e                	pop    r14
    5c42:	c3                   	ret    
    5c43:	48 8b 74 24 18       	mov    rsi,QWORD PTR [rsp+0x18]
    5c48:	48 85 f6             	test   rsi,rsi
    5c4b:	75 08                	jne    5c55 <_ZN5alloc7raw_vec19RawVec$LT$T$C$A$GT$7reserve21do_reserve_and_handle17h1bcfd82ef9b8b019E+0xb5>
    5c4d:	ff 15 1d 3e 24 00    	call   QWORD PTR [rip+0x243e1d]        # 249a70 <_GLOBAL_OFFSET_TABLE_+0x118>
    5c53:	0f 0b                	ud2    
    5c55:	48 8b 7c 24 10       	mov    rdi,QWORD PTR [rsp+0x10]
    5c5a:	ff 15 28 3f 24 00    	call   QWORD PTR [rip+0x243f28]        # 249b88 <_GLOBAL_OFFSET_TABLE_+0x230>
    5c60:	0f 0b                	ud2    
    5c62:	66 2e 0f 1f 84 00 00 	nop    WORD PTR cs:[rax+rax*1+0x0]
    5c69:	00 00 00 
    5c6c:	0f 1f 40 00          	nop    DWORD PTR [rax+0x0]

0000000000005c70 <_ZN5alloc7raw_vec19RawVec$LT$T$C$A$GT$7reserve21do_reserve_and_handle17h44eea0b9cd386cd6E>:
    5c70:	41 56                	push   r14
    5c72:	53                   	push   rbx
    5c73:	48 83 ec 38          	sub    rsp,0x38
    5c77:	48 ff c6             	inc    rsi
    5c7a:	0f 84 9d 00 00 00    	je     5d1d <_ZN5alloc7raw_vec19RawVec$LT$T$C$A$GT$7reserve21do_reserve_and_handle17h44eea0b9cd386cd6E+0xad>
    5c80:	49 89 fe             	mov    r14,rdi
    5c83:	48 8b 4f 08          	mov    rcx,QWORD PTR [rdi+0x8]
    5c87:	48 8d 04 09          	lea    rax,[rcx+rcx*1]
    5c8b:	48 39 f0             	cmp    rax,rsi
    5c8e:	48 0f 47 f0          	cmova  rsi,rax
    5c92:	48 83 fe 05          	cmp    rsi,0x5
    5c96:	b8 04 00 00 00       	mov    eax,0x4
    5c9b:	48 0f 43 c6          	cmovae rax,rsi
    5c9f:	ba 20 00 00 00       	mov    edx,0x20
    5ca4:	31 db                	xor    ebx,ebx
    5ca6:	48 f7 e2             	mul    rdx
    5ca9:	0f 91 c3             	setno  bl
    5cac:	48 c1 e3 03          	shl    rbx,0x3
    5cb0:	48 85 c9             	test   rcx,rcx
    5cb3:	74 1c                	je     5cd1 <_ZN5alloc7raw_vec19RawVec$LT$T$C$A$GT$7reserve21do_reserve_and_handle17h44eea0b9cd386cd6E+0x61>
    5cb5:	49 8b 16             	mov    rdx,QWORD PTR [r14]
    5cb8:	48 c1 e1 05          	shl    rcx,0x5
    5cbc:	48 89 54 24 20       	mov    QWORD PTR [rsp+0x20],rdx
    5cc1:	48 89 4c 24 28       	mov    QWORD PTR [rsp+0x28],rcx
    5cc6:	48 c7 44 24 30 08 00 	mov    QWORD PTR [rsp+0x30],0x8
    5ccd:	00 00 
    5ccf:	eb 09                	jmp    5cda <_ZN5alloc7raw_vec19RawVec$LT$T$C$A$GT$7reserve21do_reserve_and_handle17h44eea0b9cd386cd6E+0x6a>
    5cd1:	48 c7 44 24 20 00 00 	mov    QWORD PTR [rsp+0x20],0x0
    5cd8:	00 00 
    5cda:	48 8d 7c 24 08       	lea    rdi,[rsp+0x8]
    5cdf:	48 8d 4c 24 20       	lea    rcx,[rsp+0x20]
    5ce4:	48 89 c6             	mov    rsi,rax
    5ce7:	48 89 da             	mov    rdx,rbx
    5cea:	e8 a1 5f 00 00       	call   bc90 <_ZN5alloc7raw_vec11finish_grow17h0bc65d5867018d57E>
    5cef:	83 7c 24 08 01       	cmp    DWORD PTR [rsp+0x8],0x1
    5cf4:	74 1d                	je     5d13 <_ZN5alloc7raw_vec19RawVec$LT$T$C$A$GT$7reserve21do_reserve_and_handle17h44eea0b9cd386cd6E+0xa3>
    5cf6:	48 8b 44 24 10       	mov    rax,QWORD PTR [rsp+0x10]
    5cfb:	48 8b 4c 24 18       	mov    rcx,QWORD PTR [rsp+0x18]
    5d00:	49 89 06             	mov    QWORD PTR [r14],rax
    5d03:	48 c1 e9 05          	shr    rcx,0x5
    5d07:	49 89 4e 08          	mov    QWORD PTR [r14+0x8],rcx
    5d0b:	48 83 c4 38          	add    rsp,0x38
    5d0f:	5b                   	pop    rbx
    5d10:	41 5e                	pop    r14
    5d12:	c3                   	ret    
    5d13:	48 8b 74 24 18       	mov    rsi,QWORD PTR [rsp+0x18]
    5d18:	48 85 f6             	test   rsi,rsi
    5d1b:	75 08                	jne    5d25 <_ZN5alloc7raw_vec19RawVec$LT$T$C$A$GT$7reserve21do_reserve_and_handle17h44eea0b9cd386cd6E+0xb5>
    5d1d:	ff 15 4d 3d 24 00    	call   QWORD PTR [rip+0x243d4d]        # 249a70 <_GLOBAL_OFFSET_TABLE_+0x118>
    5d23:	0f 0b                	ud2    
    5d25:	48 8b 7c 24 10       	mov    rdi,QWORD PTR [rsp+0x10]
    5d2a:	ff 15 58 3e 24 00    	call   QWORD PTR [rip+0x243e58]        # 249b88 <_GLOBAL_OFFSET_TABLE_+0x230>
    5d30:	0f 0b                	ud2    
    5d32:	66 2e 0f 1f 84 00 00 	nop    WORD PTR cs:[rax+rax*1+0x0]
    5d39:	00 00 00 
    5d3c:	0f 1f 40 00          	nop    DWORD PTR [rax+0x0]

0000000000005d40 <_ZN5alloc7raw_vec19RawVec$LT$T$C$A$GT$7reserve21do_reserve_and_handle17h476de08c7b403332E>:
    5d40:	48 83 ec 38          	sub    rsp,0x38
    5d44:	48 ff c7             	inc    rdi
    5d47:	0f 84 a7 00 00 00    	je     5df4 <_ZN5alloc7raw_vec19RawVec$LT$T$C$A$GT$7reserve21do_reserve_and_handle17h476de08c7b403332E+0xb4>
    5d4d:	48 8b 0d ac 44 24 00 	mov    rcx,QWORD PTR [rip+0x2444ac]        # 24a200 <_ZN3std12backtrace_rs9symbolize5gimli5Cache11with_global14MAPPINGS_CACHE17ha43b1852ec188bcfE+0x20>
    5d54:	48 8d 04 09          	lea    rax,[rcx+rcx*1]
    5d58:	48 39 f8             	cmp    rax,rdi
    5d5b:	48 0f 47 f8          	cmova  rdi,rax
    5d5f:	48 83 ff 05          	cmp    rdi,0x5
    5d63:	b8 04 00 00 00       	mov    eax,0x4
    5d68:	48 0f 43 c7          	cmovae rax,rdi
    5d6c:	ba 00 01 00 00       	mov    edx,0x100
    5d71:	45 31 c0             	xor    r8d,r8d
    5d74:	48 f7 e2             	mul    rdx
    5d77:	41 0f 91 c0          	setno  r8b
    5d7b:	49 c1 e0 03          	shl    r8,0x3
    5d7f:	48 85 c9             	test   rcx,rcx
    5d82:	74 20                	je     5da4 <_ZN5alloc7raw_vec19RawVec$LT$T$C$A$GT$7reserve21do_reserve_and_handle17h476de08c7b403332E+0x64>
    5d84:	48 8b 15 6d 44 24 00 	mov    rdx,QWORD PTR [rip+0x24446d]        # 24a1f8 <_ZN3std12backtrace_rs9symbolize5gimli5Cache11with_global14MAPPINGS_CACHE17ha43b1852ec188bcfE+0x18>
    5d8b:	48 c1 e1 08          	shl    rcx,0x8
    5d8f:	48 89 54 24 20       	mov    QWORD PTR [rsp+0x20],rdx
    5d94:	48 89 4c 24 28       	mov    QWORD PTR [rsp+0x28],rcx
    5d99:	48 c7 44 24 30 08 00 	mov    QWORD PTR [rsp+0x30],0x8
    5da0:	00 00 
    5da2:	eb 09                	jmp    5dad <_ZN5alloc7raw_vec19RawVec$LT$T$C$A$GT$7reserve21do_reserve_and_handle17h476de08c7b403332E+0x6d>
    5da4:	48 c7 44 24 20 00 00 	mov    QWORD PTR [rsp+0x20],0x0
    5dab:	00 00 
    5dad:	48 8d 7c 24 08       	lea    rdi,[rsp+0x8]
    5db2:	48 8d 4c 24 20       	lea    rcx,[rsp+0x20]
    5db7:	48 89 c6             	mov    rsi,rax
    5dba:	4c 89 c2             	mov    rdx,r8
    5dbd:	e8 ce 5e 00 00       	call   bc90 <_ZN5alloc7raw_vec11finish_grow17h0bc65d5867018d57E>
    5dc2:	83 7c 24 08 01       	cmp    DWORD PTR [rsp+0x8],0x1
    5dc7:	74 21                	je     5dea <_ZN5alloc7raw_vec19RawVec$LT$T$C$A$GT$7reserve21do_reserve_and_handle17h476de08c7b403332E+0xaa>
    5dc9:	48 8b 44 24 10       	mov    rax,QWORD PTR [rsp+0x10]
    5dce:	48 8b 4c 24 18       	mov    rcx,QWORD PTR [rsp+0x18]
    5dd3:	48 89 05 1e 44 24 00 	mov    QWORD PTR [rip+0x24441e],rax        # 24a1f8 <_ZN3std12backtrace_rs9symbolize5gimli5Cache11with_global14MAPPINGS_CACHE17ha43b1852ec188bcfE+0x18>
    5dda:	48 c1 e9 08          	shr    rcx,0x8
    5dde:	48 89 0d 1b 44 24 00 	mov    QWORD PTR [rip+0x24441b],rcx        # 24a200 <_ZN3std12backtrace_rs9symbolize5gimli5Cache11with_global14MAPPINGS_CACHE17ha43b1852ec188bcfE+0x20>
    5de5:	48 83 c4 38          	add    rsp,0x38
    5de9:	c3                   	ret    
    5dea:	48 8b 74 24 18       	mov    rsi,QWORD PTR [rsp+0x18]
    5def:	48 85 f6             	test   rsi,rsi
    5df2:	75 08                	jne    5dfc <_ZN5alloc7raw_vec19RawVec$LT$T$C$A$GT$7reserve21do_reserve_and_handle17h476de08c7b403332E+0xbc>
    5df4:	ff 15 76 3c 24 00    	call   QWORD PTR [rip+0x243c76]        # 249a70 <_GLOBAL_OFFSET_TABLE_+0x118>
    5dfa:	0f 0b                	ud2    
    5dfc:	48 8b 7c 24 10       	mov    rdi,QWORD PTR [rsp+0x10]
    5e01:	ff 15 81 3d 24 00    	call   QWORD PTR [rip+0x243d81]        # 249b88 <_GLOBAL_OFFSET_TABLE_+0x230>
    5e07:	0f 0b                	ud2    
    5e09:	0f 1f 80 00 00 00 00 	nop    DWORD PTR [rax+0x0]

0000000000005e10 <_ZN5alloc7raw_vec19RawVec$LT$T$C$A$GT$7reserve21do_reserve_and_handle17h4a9e993ed05eb005E>:
    5e10:	41 56                	push   r14
    5e12:	53                   	push   rbx
    5e13:	48 83 ec 38          	sub    rsp,0x38
    5e17:	48 ff c6             	inc    rsi
    5e1a:	0f 84 aa 00 00 00    	je     5eca <_ZN5alloc7raw_vec19RawVec$LT$T$C$A$GT$7reserve21do_reserve_and_handle17h4a9e993ed05eb005E+0xba>
    5e20:	49 89 fe             	mov    r14,rdi
    5e23:	48 8b 4f 08          	mov    rcx,QWORD PTR [rdi+0x8]
    5e27:	48 8d 04 09          	lea    rax,[rcx+rcx*1]
    5e2b:	48 39 f0             	cmp    rax,rsi
    5e2e:	48 0f 47 f0          	cmova  rsi,rax
    5e32:	48 83 fe 05          	cmp    rsi,0x5
    5e36:	b8 04 00 00 00       	mov    eax,0x4
    5e3b:	48 0f 43 c6          	cmovae rax,rsi
    5e3f:	ba 30 02 00 00       	mov    edx,0x230
    5e44:	31 db                	xor    ebx,ebx
    5e46:	48 f7 e2             	mul    rdx
    5e49:	0f 91 c3             	setno  bl
    5e4c:	48 c1 e3 03          	shl    rbx,0x3
    5e50:	48 85 c9             	test   rcx,rcx
    5e53:	74 1f                	je     5e74 <_ZN5alloc7raw_vec19RawVec$LT$T$C$A$GT$7reserve21do_reserve_and_handle17h4a9e993ed05eb005E+0x64>
    5e55:	49 8b 16             	mov    rdx,QWORD PTR [r14]
    5e58:	48 69 c9 30 02 00 00 	imul   rcx,rcx,0x230
    5e5f:	48 89 54 24 20       	mov    QWORD PTR [rsp+0x20],rdx
    5e64:	48 89 4c 24 28       	mov    QWORD PTR [rsp+0x28],rcx
    5e69:	48 c7 44 24 30 08 00 	mov    QWORD PTR [rsp+0x30],0x8
    5e70:	00 00 
    5e72:	eb 09                	jmp    5e7d <_ZN5alloc7raw_vec19RawVec$LT$T$C$A$GT$7reserve21do_reserve_and_handle17h4a9e993ed05eb005E+0x6d>
    5e74:	48 c7 44 24 20 00 00 	mov    QWORD PTR [rsp+0x20],0x0
    5e7b:	00 00 
    5e7d:	48 8d 7c 24 08       	lea    rdi,[rsp+0x8]
    5e82:	48 8d 4c 24 20       	lea    rcx,[rsp+0x20]
    5e87:	48 89 c6             	mov    rsi,rax
    5e8a:	48 89 da             	mov    rdx,rbx
    5e8d:	e8 fe 5d 00 00       	call   bc90 <_ZN5alloc7raw_vec11finish_grow17h0bc65d5867018d57E>
    5e92:	83 7c 24 08 01       	cmp    DWORD PTR [rsp+0x8],0x1
    5e97:	74 27                	je     5ec0 <_ZN5alloc7raw_vec19RawVec$LT$T$C$A$GT$7reserve21do_reserve_and_handle17h4a9e993ed05eb005E+0xb0>
    5e99:	48 b8 0f ea a0 0e ea 	movabs rax,0xea0ea0ea0ea0ea0f
    5ea0:	a0 0e ea 
    5ea3:	48 f7 64 24 18       	mul    QWORD PTR [rsp+0x18]
    5ea8:	48 8b 44 24 10       	mov    rax,QWORD PTR [rsp+0x10]
    5ead:	49 89 06             	mov    QWORD PTR [r14],rax
    5eb0:	48 c1 ea 09          	shr    rdx,0x9
    5eb4:	49 89 56 08          	mov    QWORD PTR [r14+0x8],rdx
    5eb8:	48 83 c4 38          	add    rsp,0x38
    5ebc:	5b                   	pop    rbx
    5ebd:	41 5e                	pop    r14
    5ebf:	c3                   	ret    
    5ec0:	48 8b 74 24 18       	mov    rsi,QWORD PTR [rsp+0x18]
    5ec5:	48 85 f6             	test   rsi,rsi
    5ec8:	75 08                	jne    5ed2 <_ZN5alloc7raw_vec19RawVec$LT$T$C$A$GT$7reserve21do_reserve_and_handle17h4a9e993ed05eb005E+0xc2>
    5eca:	ff 15 a0 3b 24 00    	call   QWORD PTR [rip+0x243ba0]        # 249a70 <_GLOBAL_OFFSET_TABLE_+0x118>
    5ed0:	0f 0b                	ud2    
    5ed2:	48 8b 7c 24 10       	mov    rdi,QWORD PTR [rsp+0x10]
    5ed7:	ff 15 ab 3c 24 00    	call   QWORD PTR [rip+0x243cab]        # 249b88 <_GLOBAL_OFFSET_TABLE_+0x230>
    5edd:	0f 0b                	ud2    
    5edf:	90                   	nop

0000000000005ee0 <_ZN5alloc7raw_vec19RawVec$LT$T$C$A$GT$7reserve21do_reserve_and_handle17h4aa8d84ba047972dE>:
    5ee0:	41 56                	push   r14
    5ee2:	53                   	push   rbx
    5ee3:	48 83 ec 38          	sub    rsp,0x38
    5ee7:	48 01 d6             	add    rsi,rdx
    5eea:	0f 82 ab 00 00 00    	jb     5f9b <_ZN5alloc7raw_vec19RawVec$LT$T$C$A$GT$7reserve21do_reserve_and_handle17h4aa8d84ba047972dE+0xbb>
    5ef0:	49 89 fe             	mov    r14,rdi
    5ef3:	48 8b 4f 08          	mov    rcx,QWORD PTR [rdi+0x8]
    5ef7:	48 8d 04 09          	lea    rax,[rcx+rcx*1]
    5efb:	48 39 f0             	cmp    rax,rsi
    5efe:	48 0f 47 f0          	cmova  rsi,rax
    5f02:	48 83 fe 05          	cmp    rsi,0x5
    5f06:	b8 04 00 00 00       	mov    eax,0x4
    5f0b:	48 0f 43 c6          	cmovae rax,rsi
    5f0f:	ba 18 00 00 00       	mov    edx,0x18
    5f14:	31 db                	xor    ebx,ebx
    5f16:	48 f7 e2             	mul    rdx
    5f19:	0f 91 c3             	setno  bl
    5f1c:	48 c1 e3 03          	shl    rbx,0x3
    5f20:	48 85 c9             	test   rcx,rcx
    5f23:	74 20                	je     5f45 <_ZN5alloc7raw_vec19RawVec$LT$T$C$A$GT$7reserve21do_reserve_and_handle17h4aa8d84ba047972dE+0x65>
    5f25:	49 8b 16             	mov    rdx,QWORD PTR [r14]
    5f28:	48 c1 e1 03          	shl    rcx,0x3
    5f2c:	48 8d 0c 49          	lea    rcx,[rcx+rcx*2]
    5f30:	48 89 54 24 20       	mov    QWORD PTR [rsp+0x20],rdx
    5f35:	48 89 4c 24 28       	mov    QWORD PTR [rsp+0x28],rcx
    5f3a:	48 c7 44 24 30 08 00 	mov    QWORD PTR [rsp+0x30],0x8
    5f41:	00 00 
    5f43:	eb 09                	jmp    5f4e <_ZN5alloc7raw_vec19RawVec$LT$T$C$A$GT$7reserve21do_reserve_and_handle17h4aa8d84ba047972dE+0x6e>
    5f45:	48 c7 44 24 20 00 00 	mov    QWORD PTR [rsp+0x20],0x0
    5f4c:	00 00 
    5f4e:	48 8d 7c 24 08       	lea    rdi,[rsp+0x8]
    5f53:	48 8d 4c 24 20       	lea    rcx,[rsp+0x20]
    5f58:	48 89 c6             	mov    rsi,rax
    5f5b:	48 89 da             	mov    rdx,rbx
    5f5e:	e8 2d 5d 00 00       	call   bc90 <_ZN5alloc7raw_vec11finish_grow17h0bc65d5867018d57E>
    5f63:	83 7c 24 08 01       	cmp    DWORD PTR [rsp+0x8],0x1
    5f68:	74 27                	je     5f91 <_ZN5alloc7raw_vec19RawVec$LT$T$C$A$GT$7reserve21do_reserve_and_handle17h4aa8d84ba047972dE+0xb1>
    5f6a:	48 b8 ab aa aa aa aa 	movabs rax,0xaaaaaaaaaaaaaaab
    5f71:	aa aa aa 
    5f74:	48 f7 64 24 18       	mul    QWORD PTR [rsp+0x18]
    5f79:	48 8b 44 24 10       	mov    rax,QWORD PTR [rsp+0x10]
    5f7e:	49 89 06             	mov    QWORD PTR [r14],rax
    5f81:	48 c1 ea 04          	shr    rdx,0x4
    5f85:	49 89 56 08          	mov    QWORD PTR [r14+0x8],rdx
    5f89:	48 83 c4 38          	add    rsp,0x38
    5f8d:	5b                   	pop    rbx
    5f8e:	41 5e                	pop    r14
    5f90:	c3                   	ret    
    5f91:	48 8b 74 24 18       	mov    rsi,QWORD PTR [rsp+0x18]
    5f96:	48 85 f6             	test   rsi,rsi
    5f99:	75 08                	jne    5fa3 <_ZN5alloc7raw_vec19RawVec$LT$T$C$A$GT$7reserve21do_reserve_and_handle17h4aa8d84ba047972dE+0xc3>
    5f9b:	ff 15 cf 3a 24 00    	call   QWORD PTR [rip+0x243acf]        # 249a70 <_GLOBAL_OFFSET_TABLE_+0x118>
    5fa1:	0f 0b                	ud2    
    5fa3:	48 8b 7c 24 10       	mov    rdi,QWORD PTR [rsp+0x10]
    5fa8:	ff 15 da 3b 24 00    	call   QWORD PTR [rip+0x243bda]        # 249b88 <_GLOBAL_OFFSET_TABLE_+0x230>
    5fae:	0f 0b                	ud2    

0000000000005fb0 <_ZN5alloc7raw_vec19RawVec$LT$T$C$A$GT$7reserve21do_reserve_and_handle17h55024167db778f84E>:
    5fb0:	41 56                	push   r14
    5fb2:	53                   	push   rbx
    5fb3:	48 83 ec 38          	sub    rsp,0x38
    5fb7:	48 ff c6             	inc    rsi
    5fba:	0f 84 ab 00 00 00    	je     606b <_ZN5alloc7raw_vec19RawVec$LT$T$C$A$GT$7reserve21do_reserve_and_handle17h55024167db778f84E+0xbb>
    5fc0:	49 89 fe             	mov    r14,rdi
    5fc3:	48 8b 4f 08          	mov    rcx,QWORD PTR [rdi+0x8]
    5fc7:	48 8d 04 09          	lea    rax,[rcx+rcx*1]
    5fcb:	48 39 f0             	cmp    rax,rsi
    5fce:	48 0f 47 f0          	cmova  rsi,rax
    5fd2:	48 83 fe 05          	cmp    rsi,0x5
    5fd6:	b8 04 00 00 00       	mov    eax,0x4
    5fdb:	48 0f 43 c6          	cmovae rax,rsi
    5fdf:	ba 28 00 00 00       	mov    edx,0x28
    5fe4:	31 db                	xor    ebx,ebx
    5fe6:	48 f7 e2             	mul    rdx
    5fe9:	0f 91 c3             	setno  bl
    5fec:	48 c1 e3 03          	shl    rbx,0x3
    5ff0:	48 85 c9             	test   rcx,rcx
    5ff3:	74 20                	je     6015 <_ZN5alloc7raw_vec19RawVec$LT$T$C$A$GT$7reserve21do_reserve_and_handle17h55024167db778f84E+0x65>
    5ff5:	49 8b 16             	mov    rdx,QWORD PTR [r14]
    5ff8:	48 c1 e1 03          	shl    rcx,0x3
    5ffc:	48 8d 0c 89          	lea    rcx,[rcx+rcx*4]
    6000:	48 89 54 24 20       	mov    QWORD PTR [rsp+0x20],rdx
    6005:	48 89 4c 24 28       	mov    QWORD PTR [rsp+0x28],rcx
    600a:	48 c7 44 24 30 08 00 	mov    QWORD PTR [rsp+0x30],0x8
    6011:	00 00 
    6013:	eb 09                	jmp    601e <_ZN5alloc7raw_vec19RawVec$LT$T$C$A$GT$7reserve21do_reserve_and_handle17h55024167db778f84E+0x6e>
    6015:	48 c7 44 24 20 00 00 	mov    QWORD PTR [rsp+0x20],0x0
    601c:	00 00 
    601e:	48 8d 7c 24 08       	lea    rdi,[rsp+0x8]
    6023:	48 8d 4c 24 20       	lea    rcx,[rsp+0x20]
    6028:	48 89 c6             	mov    rsi,rax
    602b:	48 89 da             	mov    rdx,rbx
    602e:	e8 5d 5c 00 00       	call   bc90 <_ZN5alloc7raw_vec11finish_grow17h0bc65d5867018d57E>
    6033:	83 7c 24 08 01       	cmp    DWORD PTR [rsp+0x8],0x1
    6038:	74 27                	je     6061 <_ZN5alloc7raw_vec19RawVec$LT$T$C$A$GT$7reserve21do_reserve_and_handle17h55024167db778f84E+0xb1>
    603a:	48 b8 cd cc cc cc cc 	movabs rax,0xcccccccccccccccd
    6041:	cc cc cc 
    6044:	48 f7 64 24 18       	mul    QWORD PTR [rsp+0x18]
    6049:	48 8b 44 24 10       	mov    rax,QWORD PTR [rsp+0x10]
    604e:	49 89 06             	mov    QWORD PTR [r14],rax
    6051:	48 c1 ea 05          	shr    rdx,0x5
    6055:	49 89 56 08          	mov    QWORD PTR [r14+0x8],rdx
    6059:	48 83 c4 38          	add    rsp,0x38
    605d:	5b                   	pop    rbx
    605e:	41 5e                	pop    r14
    6060:	c3                   	ret    
    6061:	48 8b 74 24 18       	mov    rsi,QWORD PTR [rsp+0x18]
    6066:	48 85 f6             	test   rsi,rsi
    6069:	75 08                	jne    6073 <_ZN5alloc7raw_vec19RawVec$LT$T$C$A$GT$7reserve21do_reserve_and_handle17h55024167db778f84E+0xc3>
    606b:	ff 15 ff 39 24 00    	call   QWORD PTR [rip+0x2439ff]        # 249a70 <_GLOBAL_OFFSET_TABLE_+0x118>
    6071:	0f 0b                	ud2    
    6073:	48 8b 7c 24 10       	mov    rdi,QWORD PTR [rsp+0x10]
    6078:	ff 15 0a 3b 24 00    	call   QWORD PTR [rip+0x243b0a]        # 249b88 <_GLOBAL_OFFSET_TABLE_+0x230>
    607e:	0f 0b                	ud2    

0000000000006080 <_ZN5alloc7raw_vec19RawVec$LT$T$C$A$GT$7reserve21do_reserve_and_handle17h5a862a2369e71433E>:
    6080:	41 56                	push   r14
    6082:	53                   	push   rbx
    6083:	48 83 ec 38          	sub    rsp,0x38
    6087:	48 ff c6             	inc    rsi
    608a:	0f 84 ab 00 00 00    	je     613b <_ZN5alloc7raw_vec19RawVec$LT$T$C$A$GT$7reserve21do_reserve_and_handle17h5a862a2369e71433E+0xbb>
    6090:	49 89 fe             	mov    r14,rdi
    6093:	48 8b 4f 08          	mov    rcx,QWORD PTR [rdi+0x8]
    6097:	48 8d 04 09          	lea    rax,[rcx+rcx*1]
    609b:	48 39 f0             	cmp    rax,rsi
    609e:	48 0f 47 f0          	cmova  rsi,rax
    60a2:	48 83 fe 05          	cmp    rsi,0x5
    60a6:	b8 04 00 00 00       	mov    eax,0x4
    60ab:	48 0f 43 c6          	cmovae rax,rsi
    60af:	ba 18 00 00 00       	mov    edx,0x18
    60b4:	31 db                	xor    ebx,ebx
    60b6:	48 f7 e2             	mul    rdx
    60b9:	0f 91 c3             	setno  bl
    60bc:	48 c1 e3 03          	shl    rbx,0x3
    60c0:	48 85 c9             	test   rcx,rcx
    60c3:	74 20                	je     60e5 <_ZN5alloc7raw_vec19RawVec$LT$T$C$A$GT$7reserve21do_reserve_and_handle17h5a862a2369e71433E+0x65>
    60c5:	49 8b 16             	mov    rdx,QWORD PTR [r14]
    60c8:	48 c1 e1 03          	shl    rcx,0x3
    60cc:	48 8d 0c 49          	lea    rcx,[rcx+rcx*2]
    60d0:	48 89 54 24 20       	mov    QWORD PTR [rsp+0x20],rdx
    60d5:	48 89 4c 24 28       	mov    QWORD PTR [rsp+0x28],rcx
    60da:	48 c7 44 24 30 08 00 	mov    QWORD PTR [rsp+0x30],0x8
    60e1:	00 00 
    60e3:	eb 09                	jmp    60ee <_ZN5alloc7raw_vec19RawVec$LT$T$C$A$GT$7reserve21do_reserve_and_handle17h5a862a2369e71433E+0x6e>
    60e5:	48 c7 44 24 20 00 00 	mov    QWORD PTR [rsp+0x20],0x0
    60ec:	00 00 
    60ee:	48 8d 7c 24 08       	lea    rdi,[rsp+0x8]
    60f3:	48 8d 4c 24 20       	lea    rcx,[rsp+0x20]
    60f8:	48 89 c6             	mov    rsi,rax
    60fb:	48 89 da             	mov    rdx,rbx
    60fe:	e8 8d 5b 00 00       	call   bc90 <_ZN5alloc7raw_vec11finish_grow17h0bc65d5867018d57E>
    6103:	83 7c 24 08 01       	cmp    DWORD PTR [rsp+0x8],0x1
    6108:	74 27                	je     6131 <_ZN5alloc7raw_vec19RawVec$LT$T$C$A$GT$7reserve21do_reserve_and_handle17h5a862a2369e71433E+0xb1>
    610a:	48 b8 ab aa aa aa aa 	movabs rax,0xaaaaaaaaaaaaaaab
    6111:	aa aa aa 
    6114:	48 f7 64 24 18       	mul    QWORD PTR [rsp+0x18]
    6119:	48 8b 44 24 10       	mov    rax,QWORD PTR [rsp+0x10]
    611e:	49 89 06             	mov    QWORD PTR [r14],rax
    6121:	48 c1 ea 04          	shr    rdx,0x4
    6125:	49 89 56 08          	mov    QWORD PTR [r14+0x8],rdx
    6129:	48 83 c4 38          	add    rsp,0x38
    612d:	5b                   	pop    rbx
    612e:	41 5e                	pop    r14
    6130:	c3                   	ret    
    6131:	48 8b 74 24 18       	mov    rsi,QWORD PTR [rsp+0x18]
    6136:	48 85 f6             	test   rsi,rsi
    6139:	75 08                	jne    6143 <_ZN5alloc7raw_vec19RawVec$LT$T$C$A$GT$7reserve21do_reserve_and_handle17h5a862a2369e71433E+0xc3>
    613b:	ff 15 2f 39 24 00    	call   QWORD PTR [rip+0x24392f]        # 249a70 <_GLOBAL_OFFSET_TABLE_+0x118>
    6141:	0f 0b                	ud2    
    6143:	48 8b 7c 24 10       	mov    rdi,QWORD PTR [rsp+0x10]
    6148:	ff 15 3a 3a 24 00    	call   QWORD PTR [rip+0x243a3a]        # 249b88 <_GLOBAL_OFFSET_TABLE_+0x230>
    614e:	0f 0b                	ud2    

0000000000006150 <_ZN5alloc7raw_vec19RawVec$LT$T$C$A$GT$7reserve21do_reserve_and_handle17h7323b64fb7d82bfbE>:
    6150:	41 56                	push   r14
    6152:	53                   	push   rbx
    6153:	48 83 ec 38          	sub    rsp,0x38
    6157:	48 ff c6             	inc    rsi
    615a:	0f 84 aa 00 00 00    	je     620a <_ZN5alloc7raw_vec19RawVec$LT$T$C$A$GT$7reserve21do_reserve_and_handle17h7323b64fb7d82bfbE+0xba>
    6160:	49 89 fe             	mov    r14,rdi
    6163:	48 8b 4f 08          	mov    rcx,QWORD PTR [rdi+0x8]
    6167:	48 8d 04 09          	lea    rax,[rcx+rcx*1]
    616b:	48 39 f0             	cmp    rax,rsi
    616e:	48 0f 47 f0          	cmova  rsi,rax
    6172:	48 83 fe 05          	cmp    rsi,0x5
    6176:	b8 04 00 00 00       	mov    eax,0x4
    617b:	48 0f 43 c6          	cmovae rax,rsi
    617f:	ba 38 00 00 00       	mov    edx,0x38
    6184:	31 db                	xor    ebx,ebx
    6186:	48 f7 e2             	mul    rdx
    6189:	0f 91 c3             	setno  bl
    618c:	48 c1 e3 03          	shl    rbx,0x3
    6190:	48 85 c9             	test   rcx,rcx
    6193:	74 1c                	je     61b1 <_ZN5alloc7raw_vec19RawVec$LT$T$C$A$GT$7reserve21do_reserve_and_handle17h7323b64fb7d82bfbE+0x61>
    6195:	49 8b 16             	mov    rdx,QWORD PTR [r14]
    6198:	48 6b c9 38          	imul   rcx,rcx,0x38
    619c:	48 89 54 24 20       	mov    QWORD PTR [rsp+0x20],rdx
    61a1:	48 89 4c 24 28       	mov    QWORD PTR [rsp+0x28],rcx
    61a6:	48 c7 44 24 30 08 00 	mov    QWORD PTR [rsp+0x30],0x8
    61ad:	00 00 
    61af:	eb 09                	jmp    61ba <_ZN5alloc7raw_vec19RawVec$LT$T$C$A$GT$7reserve21do_reserve_and_handle17h7323b64fb7d82bfbE+0x6a>
    61b1:	48 c7 44 24 20 00 00 	mov    QWORD PTR [rsp+0x20],0x0
    61b8:	00 00 
    61ba:	48 8d 7c 24 08       	lea    rdi,[rsp+0x8]
    61bf:	48 8d 4c 24 20       	lea    rcx,[rsp+0x20]
    61c4:	48 89 c6             	mov    rsi,rax
    61c7:	48 89 da             	mov    rdx,rbx
    61ca:	e8 c1 5a 00 00       	call   bc90 <_ZN5alloc7raw_vec11finish_grow17h0bc65d5867018d57E>
    61cf:	83 7c 24 08 01       	cmp    DWORD PTR [rsp+0x8],0x1
    61d4:	74 2a                	je     6200 <_ZN5alloc7raw_vec19RawVec$LT$T$C$A$GT$7reserve21do_reserve_and_handle17h7323b64fb7d82bfbE+0xb0>
    61d6:	48 8b 4c 24 10       	mov    rcx,QWORD PTR [rsp+0x10]
    61db:	48 8b 44 24 18       	mov    rax,QWORD PTR [rsp+0x18]
    61e0:	49 89 0e             	mov    QWORD PTR [r14],rcx
    61e3:	48 c1 e8 03          	shr    rax,0x3
    61e7:	48 b9 93 24 49 92 24 	movabs rcx,0x2492492492492493
    61ee:	49 92 24 
    61f1:	48 f7 e1             	mul    rcx
    61f4:	49 89 56 08          	mov    QWORD PTR [r14+0x8],rdx
    61f8:	48 83 c4 38          	add    rsp,0x38
    61fc:	5b                   	pop    rbx
    61fd:	41 5e                	pop    r14
    61ff:	c3                   	ret    
    6200:	48 8b 74 24 18       	mov    rsi,QWORD PTR [rsp+0x18]
    6205:	48 85 f6             	test   rsi,rsi
    6208:	75 08                	jne    6212 <_ZN5alloc7raw_vec19RawVec$LT$T$C$A$GT$7reserve21do_reserve_and_handle17h7323b64fb7d82bfbE+0xc2>
    620a:	ff 15 60 38 24 00    	call   QWORD PTR [rip+0x243860]        # 249a70 <_GLOBAL_OFFSET_TABLE_+0x118>
    6210:	0f 0b                	ud2    
    6212:	48 8b 7c 24 10       	mov    rdi,QWORD PTR [rsp+0x10]
    6217:	ff 15 6b 39 24 00    	call   QWORD PTR [rip+0x24396b]        # 249b88 <_GLOBAL_OFFSET_TABLE_+0x230>
    621d:	0f 0b                	ud2    
    621f:	90                   	nop

0000000000006220 <_ZN5alloc7raw_vec19RawVec$LT$T$C$A$GT$7reserve21do_reserve_and_handle17h887b543b27fd8014E>:
    6220:	41 56                	push   r14
    6222:	53                   	push   rbx
    6223:	48 83 ec 38          	sub    rsp,0x38
    6227:	48 ff c6             	inc    rsi
    622a:	0f 84 ab 00 00 00    	je     62db <_ZN5alloc7raw_vec19RawVec$LT$T$C$A$GT$7reserve21do_reserve_and_handle17h887b543b27fd8014E+0xbb>
    6230:	49 89 fe             	mov    r14,rdi
    6233:	48 8b 4f 08          	mov    rcx,QWORD PTR [rdi+0x8]
    6237:	48 8d 04 09          	lea    rax,[rcx+rcx*1]
    623b:	48 39 f0             	cmp    rax,rsi
    623e:	48 0f 47 f0          	cmova  rsi,rax
    6242:	48 83 fe 05          	cmp    rsi,0x5
    6246:	b8 04 00 00 00       	mov    eax,0x4
    624b:	48 0f 43 c6          	cmovae rax,rsi
    624f:	ba 48 00 00 00       	mov    edx,0x48
    6254:	31 db                	xor    ebx,ebx
    6256:	48 f7 e2             	mul    rdx
    6259:	0f 91 c3             	setno  bl
    625c:	48 c1 e3 03          	shl    rbx,0x3
    6260:	48 85 c9             	test   rcx,rcx
    6263:	74 20                	je     6285 <_ZN5alloc7raw_vec19RawVec$LT$T$C$A$GT$7reserve21do_reserve_and_handle17h887b543b27fd8014E+0x65>
    6265:	49 8b 16             	mov    rdx,QWORD PTR [r14]
    6268:	48 c1 e1 03          	shl    rcx,0x3
    626c:	48 8d 0c c9          	lea    rcx,[rcx+rcx*8]
    6270:	48 89 54 24 20       	mov    QWORD PTR [rsp+0x20],rdx
    6275:	48 89 4c 24 28       	mov    QWORD PTR [rsp+0x28],rcx
    627a:	48 c7 44 24 30 08 00 	mov    QWORD PTR [rsp+0x30],0x8
    6281:	00 00 
    6283:	eb 09                	jmp    628e <_ZN5alloc7raw_vec19RawVec$LT$T$C$A$GT$7reserve21do_reserve_and_handle17h887b543b27fd8014E+0x6e>
    6285:	48 c7 44 24 20 00 00 	mov    QWORD PTR [rsp+0x20],0x0
    628c:	00 00 
    628e:	48 8d 7c 24 08       	lea    rdi,[rsp+0x8]
    6293:	48 8d 4c 24 20       	lea    rcx,[rsp+0x20]
    6298:	48 89 c6             	mov    rsi,rax
    629b:	48 89 da             	mov    rdx,rbx
    629e:	e8 ed 59 00 00       	call   bc90 <_ZN5alloc7raw_vec11finish_grow17h0bc65d5867018d57E>
    62a3:	83 7c 24 08 01       	cmp    DWORD PTR [rsp+0x8],0x1
    62a8:	74 27                	je     62d1 <_ZN5alloc7raw_vec19RawVec$LT$T$C$A$GT$7reserve21do_reserve_and_handle17h887b543b27fd8014E+0xb1>
    62aa:	48 b8 8f e3 38 8e e3 	movabs rax,0xe38e38e38e38e38f
    62b1:	38 8e e3 
    62b4:	48 f7 64 24 18       	mul    QWORD PTR [rsp+0x18]
    62b9:	48 8b 44 24 10       	mov    rax,QWORD PTR [rsp+0x10]
    62be:	49 89 06             	mov    QWORD PTR [r14],rax
    62c1:	48 c1 ea 06          	shr    rdx,0x6
    62c5:	49 89 56 08          	mov    QWORD PTR [r14+0x8],rdx
    62c9:	48 83 c4 38          	add    rsp,0x38
    62cd:	5b                   	pop    rbx
    62ce:	41 5e                	pop    r14
    62d0:	c3                   	ret    
    62d1:	48 8b 74 24 18       	mov    rsi,QWORD PTR [rsp+0x18]
    62d6:	48 85 f6             	test   rsi,rsi
    62d9:	75 08                	jne    62e3 <_ZN5alloc7raw_vec19RawVec$LT$T$C$A$GT$7reserve21do_reserve_and_handle17h887b543b27fd8014E+0xc3>
    62db:	ff 15 8f 37 24 00    	call   QWORD PTR [rip+0x24378f]        # 249a70 <_GLOBAL_OFFSET_TABLE_+0x118>
    62e1:	0f 0b                	ud2    
    62e3:	48 8b 7c 24 10       	mov    rdi,QWORD PTR [rsp+0x10]
    62e8:	ff 15 9a 38 24 00    	call   QWORD PTR [rip+0x24389a]        # 249b88 <_GLOBAL_OFFSET_TABLE_+0x230>
    62ee:	0f 0b                	ud2    

00000000000062f0 <_ZN5alloc7raw_vec19RawVec$LT$T$C$A$GT$7reserve21do_reserve_and_handle17h977ff884d8a3a3deE>:
    62f0:	41 56                	push   r14
    62f2:	53                   	push   rbx
    62f3:	48 83 ec 38          	sub    rsp,0x38
    62f7:	48 ff c6             	inc    rsi
    62fa:	0f 84 9a 00 00 00    	je     639a <_ZN5alloc7raw_vec19RawVec$LT$T$C$A$GT$7reserve21do_reserve_and_handle17h977ff884d8a3a3deE+0xaa>
    6300:	49 89 fe             	mov    r14,rdi
    6303:	48 8b 4f 08          	mov    rcx,QWORD PTR [rdi+0x8]
    6307:	48 8d 04 09          	lea    rax,[rcx+rcx*1]
    630b:	48 39 f0             	cmp    rax,rsi
    630e:	48 0f 47 f0          	cmova  rsi,rax
    6312:	48 83 fe 05          	cmp    rsi,0x5
    6316:	ba 04 00 00 00       	mov    edx,0x4
    631b:	48 0f 42 f2          	cmovb  rsi,rdx
    631f:	31 db                	xor    ebx,ebx
    6321:	48 89 f0             	mov    rax,rsi
    6324:	48 f7 e2             	mul    rdx
    6327:	0f 91 c3             	setno  bl
    632a:	48 01 db             	add    rbx,rbx
    632d:	48 85 c9             	test   rcx,rcx
    6330:	74 1c                	je     634e <_ZN5alloc7raw_vec19RawVec$LT$T$C$A$GT$7reserve21do_reserve_and_handle17h977ff884d8a3a3deE+0x5e>
    6332:	49 8b 16             	mov    rdx,QWORD PTR [r14]
    6335:	48 c1 e1 02          	shl    rcx,0x2
    6339:	48 89 54 24 20       	mov    QWORD PTR [rsp+0x20],rdx
    633e:	48 89 4c 24 28       	mov    QWORD PTR [rsp+0x28],rcx
    6343:	48 c7 44 24 30 02 00 	mov    QWORD PTR [rsp+0x30],0x2
    634a:	00 00 
    634c:	eb 09                	jmp    6357 <_ZN5alloc7raw_vec19RawVec$LT$T$C$A$GT$7reserve21do_reserve_and_handle17h977ff884d8a3a3deE+0x67>
    634e:	48 c7 44 24 20 00 00 	mov    QWORD PTR [rsp+0x20],0x0
    6355:	00 00 
    6357:	48 8d 7c 24 08       	lea    rdi,[rsp+0x8]
    635c:	48 8d 4c 24 20       	lea    rcx,[rsp+0x20]
    6361:	48 89 c6             	mov    rsi,rax
    6364:	48 89 da             	mov    rdx,rbx
    6367:	e8 24 59 00 00       	call   bc90 <_ZN5alloc7raw_vec11finish_grow17h0bc65d5867018d57E>
    636c:	83 7c 24 08 01       	cmp    DWORD PTR [rsp+0x8],0x1
    6371:	74 1d                	je     6390 <_ZN5alloc7raw_vec19RawVec$LT$T$C$A$GT$7reserve21do_reserve_and_handle17h977ff884d8a3a3deE+0xa0>
    6373:	48 8b 44 24 10       	mov    rax,QWORD PTR [rsp+0x10]
    6378:	48 8b 4c 24 18       	mov    rcx,QWORD PTR [rsp+0x18]
    637d:	49 89 06             	mov    QWORD PTR [r14],rax
    6380:	48 c1 e9 02          	shr    rcx,0x2
    6384:	49 89 4e 08          	mov    QWORD PTR [r14+0x8],rcx
    6388:	48 83 c4 38          	add    rsp,0x38
    638c:	5b                   	pop    rbx
    638d:	41 5e                	pop    r14
    638f:	c3                   	ret    
    6390:	48 8b 74 24 18       	mov    rsi,QWORD PTR [rsp+0x18]
    6395:	48 85 f6             	test   rsi,rsi
    6398:	75 08                	jne    63a2 <_ZN5alloc7raw_vec19RawVec$LT$T$C$A$GT$7reserve21do_reserve_and_handle17h977ff884d8a3a3deE+0xb2>
    639a:	ff 15 d0 36 24 00    	call   QWORD PTR [rip+0x2436d0]        # 249a70 <_GLOBAL_OFFSET_TABLE_+0x118>
    63a0:	0f 0b                	ud2    
    63a2:	48 8b 7c 24 10       	mov    rdi,QWORD PTR [rsp+0x10]
    63a7:	ff 15 db 37 24 00    	call   QWORD PTR [rip+0x2437db]        # 249b88 <_GLOBAL_OFFSET_TABLE_+0x230>
    63ad:	0f 0b                	ud2    
    63af:	90                   	nop

00000000000063b0 <_ZN5alloc7raw_vec19RawVec$LT$T$C$A$GT$7reserve21do_reserve_and_handle17h984011f8e56773b5E>:
    63b0:	53                   	push   rbx
    63b1:	48 83 ec 30          	sub    rsp,0x30
    63b5:	48 89 f0             	mov    rax,rsi
    63b8:	48 01 d0             	add    rax,rdx
    63bb:	72 75                	jb     6432 <_ZN5alloc7raw_vec19RawVec$LT$T$C$A$GT$7reserve21do_reserve_and_handle17h984011f8e56773b5E+0x82>
    63bd:	48 89 fb             	mov    rbx,rdi
    63c0:	48 8b 4f 08          	mov    rcx,QWORD PTR [rdi+0x8]
    63c4:	48 8d 14 09          	lea    rdx,[rcx+rcx*1]
    63c8:	48 39 c2             	cmp    rdx,rax
    63cb:	48 0f 47 c2          	cmova  rax,rdx
    63cf:	48 83 f8 09          	cmp    rax,0x9
    63d3:	be 08 00 00 00       	mov    esi,0x8
    63d8:	48 0f 43 f0          	cmovae rsi,rax
    63dc:	48 85 c9             	test   rcx,rcx
    63df:	74 18                	je     63f9 <_ZN5alloc7raw_vec19RawVec$LT$T$C$A$GT$7reserve21do_reserve_and_handle17h984011f8e56773b5E+0x49>
    63e1:	48 8b 03             	mov    rax,QWORD PTR [rbx]
    63e4:	48 89 44 24 18       	mov    QWORD PTR [rsp+0x18],rax
    63e9:	48 89 4c 24 20       	mov    QWORD PTR [rsp+0x20],rcx
    63ee:	48 c7 44 24 28 01 00 	mov    QWORD PTR [rsp+0x28],0x1
    63f5:	00 00 
    63f7:	eb 09                	jmp    6402 <_ZN5alloc7raw_vec19RawVec$LT$T$C$A$GT$7reserve21do_reserve_and_handle17h984011f8e56773b5E+0x52>
    63f9:	48 c7 44 24 18 00 00 	mov    QWORD PTR [rsp+0x18],0x0
    6400:	00 00 
    6402:	48 89 e7             	mov    rdi,rsp
    6405:	48 8d 4c 24 18       	lea    rcx,[rsp+0x18]
    640a:	ba 01 00 00 00       	mov    edx,0x1
    640f:	e8 7c 58 00 00       	call   bc90 <_ZN5alloc7raw_vec11finish_grow17h0bc65d5867018d57E>
    6414:	83 3c 24 01          	cmp    DWORD PTR [rsp],0x1
    6418:	74 0e                	je     6428 <_ZN5alloc7raw_vec19RawVec$LT$T$C$A$GT$7reserve21do_reserve_and_handle17h984011f8e56773b5E+0x78>
    641a:	0f 10 44 24 08       	movups xmm0,XMMWORD PTR [rsp+0x8]
    641f:	0f 11 03             	movups XMMWORD PTR [rbx],xmm0
    6422:	48 83 c4 30          	add    rsp,0x30
    6426:	5b                   	pop    rbx
    6427:	c3                   	ret    
    6428:	48 8b 74 24 10       	mov    rsi,QWORD PTR [rsp+0x10]
    642d:	48 85 f6             	test   rsi,rsi
    6430:	75 08                	jne    643a <_ZN5alloc7raw_vec19RawVec$LT$T$C$A$GT$7reserve21do_reserve_and_handle17h984011f8e56773b5E+0x8a>
    6432:	ff 15 38 36 24 00    	call   QWORD PTR [rip+0x243638]        # 249a70 <_GLOBAL_OFFSET_TABLE_+0x118>
    6438:	0f 0b                	ud2    
    643a:	48 8b 7c 24 08       	mov    rdi,QWORD PTR [rsp+0x8]
    643f:	ff 15 43 37 24 00    	call   QWORD PTR [rip+0x243743]        # 249b88 <_GLOBAL_OFFSET_TABLE_+0x230>
    6445:	0f 0b                	ud2    
    6447:	66 0f 1f 84 00 00 00 	nop    WORD PTR [rax+rax*1+0x0]
    644e:	00 00 

0000000000006450 <_ZN5alloc7raw_vec19RawVec$LT$T$C$A$GT$7reserve21do_reserve_and_handle17hf34902042484594fE>:
    6450:	41 56                	push   r14
    6452:	53                   	push   rbx
    6453:	48 83 ec 38          	sub    rsp,0x38
    6457:	48 ff c6             	inc    rsi
    645a:	0f 84 9d 00 00 00    	je     64fd <_ZN5alloc7raw_vec19RawVec$LT$T$C$A$GT$7reserve21do_reserve_and_handle17hf34902042484594fE+0xad>
    6460:	49 89 fe             	mov    r14,rdi
    6463:	48 8b 4f 08          	mov    rcx,QWORD PTR [rdi+0x8]
    6467:	48 8d 04 09          	lea    rax,[rcx+rcx*1]
    646b:	48 39 f0             	cmp    rax,rsi
    646e:	48 0f 47 f0          	cmova  rsi,rax
    6472:	48 83 fe 05          	cmp    rsi,0x5
    6476:	b8 04 00 00 00       	mov    eax,0x4
    647b:	48 0f 43 c6          	cmovae rax,rsi
    647f:	ba 40 00 00 00       	mov    edx,0x40
    6484:	31 db                	xor    ebx,ebx
    6486:	48 f7 e2             	mul    rdx
    6489:	0f 91 c3             	setno  bl
    648c:	48 c1 e3 03          	shl    rbx,0x3
    6490:	48 85 c9             	test   rcx,rcx
    6493:	74 1c                	je     64b1 <_ZN5alloc7raw_vec19RawVec$LT$T$C$A$GT$7reserve21do_reserve_and_handle17hf34902042484594fE+0x61>
    6495:	49 8b 16             	mov    rdx,QWORD PTR [r14]
    6498:	48 c1 e1 06          	shl    rcx,0x6
    649c:	48 89 54 24 20       	mov    QWORD PTR [rsp+0x20],rdx
    64a1:	48 89 4c 24 28       	mov    QWORD PTR [rsp+0x28],rcx
    64a6:	48 c7 44 24 30 08 00 	mov    QWORD PTR [rsp+0x30],0x8
    64ad:	00 00 
    64af:	eb 09                	jmp    64ba <_ZN5alloc7raw_vec19RawVec$LT$T$C$A$GT$7reserve21do_reserve_and_handle17hf34902042484594fE+0x6a>
    64b1:	48 c7 44 24 20 00 00 	mov    QWORD PTR [rsp+0x20],0x0
    64b8:	00 00 
    64ba:	48 8d 7c 24 08       	lea    rdi,[rsp+0x8]
    64bf:	48 8d 4c 24 20       	lea    rcx,[rsp+0x20]
    64c4:	48 89 c6             	mov    rsi,rax
    64c7:	48 89 da             	mov    rdx,rbx
    64ca:	e8 c1 57 00 00       	call   bc90 <_ZN5alloc7raw_vec11finish_grow17h0bc65d5867018d57E>
    64cf:	83 7c 24 08 01       	cmp    DWORD PTR [rsp+0x8],0x1
    64d4:	74 1d                	je     64f3 <_ZN5alloc7raw_vec19RawVec$LT$T$C$A$GT$7reserve21do_reserve_and_handle17hf34902042484594fE+0xa3>
    64d6:	48 8b 44 24 10       	mov    rax,QWORD PTR [rsp+0x10]
    64db:	48 8b 4c 24 18       	mov    rcx,QWORD PTR [rsp+0x18]
    64e0:	49 89 06             	mov    QWORD PTR [r14],rax
    64e3:	48 c1 e9 06          	shr    rcx,0x6
    64e7:	49 89 4e 08          	mov    QWORD PTR [r14+0x8],rcx
    64eb:	48 83 c4 38          	add    rsp,0x38
    64ef:	5b                   	pop    rbx
    64f0:	41 5e                	pop    r14
    64f2:	c3                   	ret    
    64f3:	48 8b 74 24 18       	mov    rsi,QWORD PTR [rsp+0x18]
    64f8:	48 85 f6             	test   rsi,rsi
    64fb:	75 08                	jne    6505 <_ZN5alloc7raw_vec19RawVec$LT$T$C$A$GT$7reserve21do_reserve_and_handle17hf34902042484594fE+0xb5>
    64fd:	ff 15 6d 35 24 00    	call   QWORD PTR [rip+0x24356d]        # 249a70 <_GLOBAL_OFFSET_TABLE_+0x118>
    6503:	0f 0b                	ud2    
    6505:	48 8b 7c 24 10       	mov    rdi,QWORD PTR [rsp+0x10]
    650a:	ff 15 78 36 24 00    	call   QWORD PTR [rip+0x243678]        # 249b88 <_GLOBAL_OFFSET_TABLE_+0x230>
    6510:	0f 0b                	ud2    
    6512:	66 2e 0f 1f 84 00 00 	nop    WORD PTR cs:[rax+rax*1+0x0]
    6519:	00 00 00 
    651c:	0f 1f 40 00          	nop    DWORD PTR [rax+0x0]

0000000000006520 <_ZN3std2io8buffered9bufwriter18BufWriter$LT$W$GT$14write_all_cold17h97ddbce3d8bd08d5E>:
    6520:	55                   	push   rbp
    6521:	41 57                	push   r15
    6523:	41 56                	push   r14
    6525:	41 55                	push   r13
    6527:	41 54                	push   r12
    6529:	53                   	push   rbx
    652a:	50                   	push   rax
    652b:	48 89 d3             	mov    rbx,rdx
    652e:	49 89 f4             	mov    r12,rsi
    6531:	48 89 fd             	mov    rbp,rdi
    6534:	48 8b 47 08          	mov    rax,QWORD PTR [rdi+0x8]
    6538:	48 89 c1             	mov    rcx,rax
    653b:	48 2b 4f 10          	sub    rcx,QWORD PTR [rdi+0x10]
    653f:	48 39 d1             	cmp    rcx,rdx
    6542:	73 14                	jae    6558 <_ZN3std2io8buffered9bufwriter18BufWriter$LT$W$GT$14write_all_cold17h97ddbce3d8bd08d5E+0x38>
    6544:	48 89 ef             	mov    rdi,rbp
    6547:	e8 24 27 01 00       	call   18c70 <_ZN3std2io8buffered9bufwriter18BufWriter$LT$W$GT$9flush_buf17h0b42eb2e1aa0f331E>
    654c:	3c 04                	cmp    al,0x4
    654e:	0f 85 ca 00 00 00    	jne    661e <_ZN3std2io8buffered9bufwriter18BufWriter$LT$W$GT$14write_all_cold17h97ddbce3d8bd08d5E+0xfe>
    6554:	48 8b 45 08          	mov    rax,QWORD PTR [rbp+0x8]
    6558:	48 39 d8             	cmp    rax,rbx
    655b:	76 25                	jbe    6582 <_ZN3std2io8buffered9bufwriter18BufWriter$LT$W$GT$14write_all_cold17h97ddbce3d8bd08d5E+0x62>
    655d:	4c 8b 75 10          	mov    r14,QWORD PTR [rbp+0x10]
    6561:	48 8b 7d 00          	mov    rdi,QWORD PTR [rbp+0x0]
    6565:	4c 01 f7             	add    rdi,r14
    6568:	4c 89 e6             	mov    rsi,r12
    656b:	48 89 da             	mov    rdx,rbx
    656e:	ff 15 14 3a 24 00    	call   QWORD PTR [rip+0x243a14]        # 249f88 <memcpy@GLIBC_2.14>
    6574:	49 01 de             	add    r14,rbx
    6577:	4c 89 75 10          	mov    QWORD PTR [rbp+0x10],r14
    657b:	b0 04                	mov    al,0x4
    657d:	e9 fa 00 00 00       	jmp    667c <_ZN3std2io8buffered9bufwriter18BufWriter$LT$W$GT$14write_all_cold17h97ddbce3d8bd08d5E+0x15c>
    6582:	c6 45 18 01          	mov    BYTE PTR [rbp+0x18],0x1
    6586:	b0 04                	mov    al,0x4
    6588:	40 b6 01             	mov    sil,0x1
    658b:	48 85 db             	test   rbx,rbx
    658e:	0f 84 9b 00 00 00    	je     662f <_ZN3std2io8buffered9bufwriter18BufWriter$LT$W$GT$14write_all_cold17h97ddbce3d8bd08d5E+0x10f>
    6594:	48 89 2c 24          	mov    QWORD PTR [rsp],rbp
    6598:	49 be ff ff ff ff ff 	movabs r14,0x7fffffffffffffff
    659f:	ff ff 7f 
    65a2:	4c 8d 2d 3f 14 24 00 	lea    r13,[rip+0x24143f]        # 2479e8 <__init_array_end+0x758>
    65a9:	4d 89 ef             	mov    r15,r13
    65ac:	49 c1 ef 08          	shr    r15,0x8
    65b0:	49 c1 e5 38          	shl    r13,0x38
    65b4:	49 83 cd 17          	or     r13,0x17
    65b8:	eb 1f                	jmp    65d9 <_ZN3std2io8buffered9bufwriter18BufWriter$LT$W$GT$14write_all_cold17h97ddbce3d8bd08d5E+0xb9>
    65ba:	66 0f 1f 44 00 00    	nop    WORD PTR [rax+rax*1+0x0]
    65c0:	ff 15 02 38 24 00    	call   QWORD PTR [rip+0x243802]        # 249dc8 <__errno_location@GLIBC_2.2.5>
    65c6:	8b 28                	mov    ebp,DWORD PTR [rax]
    65c8:	89 ef                	mov    edi,ebp
    65ca:	ff 15 c0 38 24 00    	call   QWORD PTR [rip+0x2438c0]        # 249e90 <_GLOBAL_OFFSET_TABLE_+0x538>
    65d0:	3c 23                	cmp    al,0x23
    65d2:	75 63                	jne    6637 <_ZN3std2io8buffered9bufwriter18BufWriter$LT$W$GT$14write_all_cold17h97ddbce3d8bd08d5E+0x117>
    65d4:	48 85 db             	test   rbx,rbx
    65d7:	74 3a                	je     6613 <_ZN3std2io8buffered9bufwriter18BufWriter$LT$W$GT$14write_all_cold17h97ddbce3d8bd08d5E+0xf3>
    65d9:	4c 39 f3             	cmp    rbx,r14
    65dc:	4c 89 f2             	mov    rdx,r14
    65df:	48 0f 42 d3          	cmovb  rdx,rbx
    65e3:	bf 01 00 00 00       	mov    edi,0x1
    65e8:	4c 89 e6             	mov    rsi,r12
    65eb:	ff 15 47 39 24 00    	call   QWORD PTR [rip+0x243947]        # 249f38 <write@GLIBC_2.2.5>
    65f1:	48 83 f8 ff          	cmp    rax,0xffffffffffffffff
    65f5:	74 c9                	je     65c0 <_ZN3std2io8buffered9bufwriter18BufWriter$LT$W$GT$14write_all_cold17h97ddbce3d8bd08d5E+0xa0>
    65f7:	48 85 c0             	test   rax,rax
    65fa:	74 35                	je     6631 <_ZN3std2io8buffered9bufwriter18BufWriter$LT$W$GT$14write_all_cold17h97ddbce3d8bd08d5E+0x111>
    65fc:	48 89 d9             	mov    rcx,rbx
    65ff:	48 29 c1             	sub    rcx,rax
    6602:	0f 82 95 00 00 00    	jb     669d <_ZN3std2io8buffered9bufwriter18BufWriter$LT$W$GT$14write_all_cold17h97ddbce3d8bd08d5E+0x17d>
    6608:	49 01 c4             	add    r12,rax
    660b:	48 89 cb             	mov    rbx,rcx
    660e:	48 85 db             	test   rbx,rbx
    6611:	75 c6                	jne    65d9 <_ZN3std2io8buffered9bufwriter18BufWriter$LT$W$GT$14write_all_cold17h97ddbce3d8bd08d5E+0xb9>
    6613:	48 8b 2c 24          	mov    rbp,QWORD PTR [rsp]
    6617:	40 b6 01             	mov    sil,0x1
    661a:	b0 04                	mov    al,0x4
    661c:	eb 2b                	jmp    6649 <_ZN3std2io8buffered9bufwriter18BufWriter$LT$W$GT$14write_all_cold17h97ddbce3d8bd08d5E+0x129>
    661e:	49 89 d7             	mov    r15,rdx
    6621:	49 89 c5             	mov    r13,rax
    6624:	49 0f ac d5 08       	shrd   r13,rdx,0x8
    6629:	49 c1 ef 08          	shr    r15,0x8
    662d:	eb 4d                	jmp    667c <_ZN3std2io8buffered9bufwriter18BufWriter$LT$W$GT$14write_all_cold17h97ddbce3d8bd08d5E+0x15c>
    662f:	eb 18                	jmp    6649 <_ZN3std2io8buffered9bufwriter18BufWriter$LT$W$GT$14write_all_cold17h97ddbce3d8bd08d5E+0x129>
    6631:	b0 02                	mov    al,0x2
    6633:	31 f6                	xor    esi,esi
    6635:	eb 0e                	jmp    6645 <_ZN3std2io8buffered9bufwriter18BufWriter$LT$W$GT$14write_all_cold17h97ddbce3d8bd08d5E+0x125>
    6637:	41 89 ed             	mov    r13d,ebp
    663a:	49 c1 e5 18          	shl    r13,0x18
    663e:	45 31 ff             	xor    r15d,r15d
    6641:	31 f6                	xor    esi,esi
    6643:	31 c0                	xor    eax,eax
    6645:	48 8b 2c 24          	mov    rbp,QWORD PTR [rsp]
    6649:	0f b6 c0             	movzx  eax,al
    664c:	4c 89 e9             	mov    rcx,r13
    664f:	48 81 e1 00 00 00 ff 	and    rcx,0xffffffffff000000
    6656:	48 c1 e1 08          	shl    rcx,0x8
    665a:	48 09 c1             	or     rcx,rax
    665d:	48 ba 00 00 00 00 09 	movabs rdx,0x900000000
    6664:	00 00 00 
    6667:	48 31 ca             	xor    rdx,rcx
    666a:	b9 04 00 00 00       	mov    ecx,0x4
    666f:	0f 44 c1             	cmove  eax,ecx
    6672:	40 84 f6             	test   sil,sil
    6675:	0f 45 c1             	cmovne eax,ecx
    6678:	c6 45 18 00          	mov    BYTE PTR [rbp+0x18],0x0
    667c:	4d 0f a4 ef 08       	shld   r15,r13,0x8
    6681:	49 c1 e5 08          	shl    r13,0x8
    6685:	0f b6 c0             	movzx  eax,al
    6688:	4c 09 e8             	or     rax,r13
    668b:	4c 89 fa             	mov    rdx,r15
    668e:	48 83 c4 08          	add    rsp,0x8
    6692:	5b                   	pop    rbx
    6693:	41 5c                	pop    r12
    6695:	41 5d                	pop    r13
    6697:	41 5e                	pop    r14
    6699:	41 5f                	pop    r15
    669b:	5d                   	pop    rbp
    669c:	c3                   	ret    
    669d:	48 8d 15 d4 13 24 00 	lea    rdx,[rip+0x2413d4]        # 247a78 <__init_array_end+0x7e8>
    66a4:	48 89 c7             	mov    rdi,rax
    66a7:	48 89 de             	mov    rsi,rbx
    66aa:	ff 15 00 39 24 00    	call   QWORD PTR [rip+0x243900]        # 249fb0 <_GLOBAL_OFFSET_TABLE_+0x658>
    66b0:	0f 0b                	ud2    
    66b2:	66 2e 0f 1f 84 00 00 	nop    WORD PTR cs:[rax+rax*1+0x0]
    66b9:	00 00 00 
    66bc:	0f 1f 40 00          	nop    DWORD PTR [rax+0x0]

00000000000066c0 <_ZN3std7process5abort17h887d510ab1f66ceaE>:
    66c0:	50                   	push   rax
    66c1:	e8 da ab 01 00       	call   212a0 <_ZN3std3sys4unix14abort_internal17h0647a00de8e016a0E>
    66c6:	0f 0b                	ud2    
    66c8:	0f 1f 84 00 00 00 00 	nop    DWORD PTR [rax+rax*1+0x0]
    66cf:	00 

00000000000066d0 <_ZN3std4sync4once4Once10call_inner17hb3a655ef2ff7c156E>:
    66d0:	55                   	push   rbp
    66d1:	41 57                	push   r15
    66d3:	41 56                	push   r14
    66d5:	41 55                	push   r13
    66d7:	41 54                	push   r12
    66d9:	53                   	push   rbx
    66da:	48 83 ec 38          	sub    rsp,0x38
    66de:	48 89 4c 24 30       	mov    QWORD PTR [rsp+0x30],rcx
    66e3:	48 89 54 24 28       	mov    QWORD PTR [rsp+0x28],rdx
    66e8:	49 89 fc             	mov    r12,rdi
    66eb:	48 8b 1f             	mov    rbx,QWORD PTR [rdi]
    66ee:	85 f6                	test   esi,esi
    66f0:	0f 84 4d 01 00 00    	je     6843 <_ZN3std4sync4once4Once10call_inner17hb3a655ef2ff7c156E+0x173>
    66f6:	4c 8d 3d 53 1e 01 00 	lea    r15,[rip+0x11e53]        # 18550 <_ZN3std6thread7current17h3c1a50a2b73e5becE>
    66fd:	31 ed                	xor    ebp,ebp
    66ff:	4c 8b 35 7a 35 24 00 	mov    r14,QWORD PTR [rip+0x24357a]        # 249c80 <syscall@GLIBC_2.2.5>
    6706:	eb 0c                	jmp    6714 <_ZN3std4sync4once4Once10call_inner17hb3a655ef2ff7c156E+0x44>
    6708:	0f 1f 84 00 00 00 00 	nop    DWORD PTR [rax+rax*1+0x0]
    670f:	00 
    6710:	49 8b 1c 24          	mov    rbx,QWORD PTR [r12]
    6714:	49 89 dd             	mov    r13,rbx
    6717:	48 83 fb 02          	cmp    rbx,0x2
    671b:	73 23                	jae    6740 <_ZN3std4sync4once4Once10call_inner17hb3a655ef2ff7c156E+0x70>
    671d:	4c 89 e8             	mov    rax,r13
    6720:	b9 02 00 00 00       	mov    ecx,0x2
    6725:	f0 49 0f b1 0c 24    	lock cmpxchg QWORD PTR [r12],rcx
    672b:	48 89 c3             	mov    rbx,rax
    672e:	75 e4                	jne    6714 <_ZN3std4sync4once4Once10call_inner17hb3a655ef2ff7c156E+0x44>
    6730:	e9 54 02 00 00       	jmp    6989 <_ZN3std4sync4once4Once10call_inner17hb3a655ef2ff7c156E+0x2b9>
    6735:	66 2e 0f 1f 84 00 00 	nop    WORD PTR cs:[rax+rax*1+0x0]
    673c:	00 00 00 
    673f:	90                   	nop
    6740:	49 83 fd 03          	cmp    r13,0x3
    6744:	0f 84 82 02 00 00    	je     69cc <_ZN3std4sync4once4Once10call_inner17hb3a655ef2ff7c156E+0x2fc>
    674a:	44 89 e8             	mov    eax,r13d
    674d:	83 e0 03             	and    eax,0x3
    6750:	83 f8 02             	cmp    eax,0x2
    6753:	74 16                	je     676b <_ZN3std4sync4once4Once10call_inner17hb3a655ef2ff7c156E+0x9b>
    6755:	e9 81 02 00 00       	jmp    69db <_ZN3std4sync4once4Once10call_inner17hb3a655ef2ff7c156E+0x30b>
    675a:	66 0f 1f 44 00 00    	nop    WORD PTR [rax+rax*1+0x0]
    6760:	44 89 e8             	mov    eax,r13d
    6763:	83 e0 03             	and    eax,0x3
    6766:	83 f8 02             	cmp    eax,0x2
    6769:	75 a5                	jne    6710 <_ZN3std4sync4once4Once10call_inner17hb3a655ef2ff7c156E+0x40>
    676b:	41 ff d7             	call   r15
    676e:	4c 89 e9             	mov    rcx,r13
    6771:	48 83 e1 fc          	and    rcx,0xfffffffffffffffc
    6775:	48 89 04 24          	mov    QWORD PTR [rsp],rax
    6779:	c6 44 24 10 00       	mov    BYTE PTR [rsp+0x10],0x0
    677e:	48 89 4c 24 08       	mov    QWORD PTR [rsp+0x8],rcx
    6783:	4c 89 e8             	mov    rax,r13
    6786:	48 8d 4c 24 02       	lea    rcx,[rsp+0x2]
    678b:	f0 49 0f b1 0c 24    	lock cmpxchg QWORD PTR [r12],rcx
    6791:	0f 84 7e 00 00 00    	je     6815 <_ZN3std4sync4once4Once10call_inner17hb3a655ef2ff7c156E+0x145>
    6797:	49 89 c5             	mov    r13,rax
    679a:	48 8b 04 24          	mov    rax,QWORD PTR [rsp]
    679e:	48 85 c0             	test   rax,rax
    67a1:	74 bd                	je     6760 <_ZN3std4sync4once4Once10call_inner17hb3a655ef2ff7c156E+0x90>
    67a3:	f0 48 83 28 01       	lock sub QWORD PTR [rax],0x1
    67a8:	75 b6                	jne    6760 <_ZN3std4sync4once4Once10call_inner17hb3a655ef2ff7c156E+0x90>
    67aa:	48 8b 3c 24          	mov    rdi,QWORD PTR [rsp]
    67ae:	e8 fd 53 00 00       	call   bbb0 <_ZN5alloc4sync12Arc$LT$T$GT$9drop_slow17h78b3f7c9a3fd0c3bE>
    67b3:	eb ab                	jmp    6760 <_ZN3std4sync4once4Once10call_inner17hb3a655ef2ff7c156E+0x90>
    67b5:	66 2e 0f 1f 84 00 00 	nop    WORD PTR cs:[rax+rax*1+0x0]
    67bc:	00 00 00 
    67bf:	90                   	nop
    67c0:	41 ff d7             	call   r15
    67c3:	49 89 c5             	mov    r13,rax
    67c6:	f0 83 68 28 01       	lock sub DWORD PTR [rax+0x28],0x1
    67cb:	74 38                	je     6805 <_ZN3std4sync4once4Once10call_inner17hb3a655ef2ff7c156E+0x135>
    67cd:	4c 89 eb             	mov    rbx,r13
    67d0:	48 83 c3 28          	add    rbx,0x28
    67d4:	66 2e 0f 1f 84 00 00 	nop    WORD PTR cs:[rax+rax*1+0x0]
    67db:	00 00 00 
    67de:	66 90                	xchg   ax,ax
    67e0:	bf ca 00 00 00       	mov    edi,0xca
    67e5:	48 89 de             	mov    rsi,rbx
    67e8:	ba 80 00 00 00       	mov    edx,0x80
    67ed:	b9 ff ff ff ff       	mov    ecx,0xffffffff
    67f2:	45 31 c0             	xor    r8d,r8d
    67f5:	31 c0                	xor    eax,eax
    67f7:	41 ff d6             	call   r14
    67fa:	b8 01 00 00 00       	mov    eax,0x1
    67ff:	f0 0f b1 2b          	lock cmpxchg DWORD PTR [rbx],ebp
    6803:	75 db                	jne    67e0 <_ZN3std4sync4once4Once10call_inner17hb3a655ef2ff7c156E+0x110>
    6805:	f0 49 83 6d 00 01    	lock sub QWORD PTR [r13+0x0],0x1
    680b:	75 08                	jne    6815 <_ZN3std4sync4once4Once10call_inner17hb3a655ef2ff7c156E+0x145>
    680d:	4c 89 ef             	mov    rdi,r13
    6810:	e8 9b 53 00 00       	call   bbb0 <_ZN5alloc4sync12Arc$LT$T$GT$9drop_slow17h78b3f7c9a3fd0c3bE>
    6815:	8a 44 24 10          	mov    al,BYTE PTR [rsp+0x10]
    6819:	84 c0                	test   al,al
    681b:	74 a3                	je     67c0 <_ZN3std4sync4once4Once10call_inner17hb3a655ef2ff7c156E+0xf0>
    681d:	48 8b 04 24          	mov    rax,QWORD PTR [rsp]
    6821:	48 85 c0             	test   rax,rax
    6824:	0f 84 e6 fe ff ff    	je     6710 <_ZN3std4sync4once4Once10call_inner17hb3a655ef2ff7c156E+0x40>
    682a:	f0 48 83 28 01       	lock sub QWORD PTR [rax],0x1
    682f:	0f 85 db fe ff ff    	jne    6710 <_ZN3std4sync4once4Once10call_inner17hb3a655ef2ff7c156E+0x40>
    6835:	48 8b 3c 24          	mov    rdi,QWORD PTR [rsp]
    6839:	e8 72 53 00 00       	call   bbb0 <_ZN5alloc4sync12Arc$LT$T$GT$9drop_slow17h78b3f7c9a3fd0c3bE>
    683e:	e9 cd fe ff ff       	jmp    6710 <_ZN3std4sync4once4Once10call_inner17hb3a655ef2ff7c156E+0x40>
    6843:	45 31 ed             	xor    r13d,r13d
    6846:	4c 8d 3d 03 1d 01 00 	lea    r15,[rip+0x11d03]        # 18550 <_ZN3std6thread7current17h3c1a50a2b73e5becE>
    684d:	4c 8b 35 2c 34 24 00 	mov    r14,QWORD PTR [rip+0x24342c]        # 249c80 <syscall@GLIBC_2.2.5>
    6854:	eb 20                	jmp    6876 <_ZN3std4sync4once4Once10call_inner17hb3a655ef2ff7c156E+0x1a6>
    6856:	66 2e 0f 1f 84 00 00 	nop    WORD PTR cs:[rax+rax*1+0x0]
    685d:	00 00 00 
    6860:	31 c0                	xor    eax,eax
    6862:	b9 02 00 00 00       	mov    ecx,0x2
    6867:	f0 49 0f b1 0c 24    	lock cmpxchg QWORD PTR [r12],rcx
    686d:	48 89 c3             	mov    rbx,rax
    6870:	0f 84 13 01 00 00    	je     6989 <_ZN3std4sync4once4Once10call_inner17hb3a655ef2ff7c156E+0x2b9>
    6876:	48 85 db             	test   rbx,rbx
    6879:	74 e5                	je     6860 <_ZN3std4sync4once4Once10call_inner17hb3a655ef2ff7c156E+0x190>
    687b:	48 83 fb 03          	cmp    rbx,0x3
    687f:	0f 84 47 01 00 00    	je     69cc <_ZN3std4sync4once4Once10call_inner17hb3a655ef2ff7c156E+0x2fc>
    6885:	48 83 fb 01          	cmp    rbx,0x1
    6889:	0f 84 67 01 00 00    	je     69f6 <_ZN3std4sync4once4Once10call_inner17hb3a655ef2ff7c156E+0x326>
    688f:	89 d8                	mov    eax,ebx
    6891:	83 e0 03             	and    eax,0x3
    6894:	83 f8 02             	cmp    eax,0x2
    6897:	74 15                	je     68ae <_ZN3std4sync4once4Once10call_inner17hb3a655ef2ff7c156E+0x1de>
    6899:	e9 3d 01 00 00       	jmp    69db <_ZN3std4sync4once4Once10call_inner17hb3a655ef2ff7c156E+0x30b>
    689e:	66 90                	xchg   ax,ax
    68a0:	89 d8                	mov    eax,ebx
    68a2:	83 e0 03             	and    eax,0x3
    68a5:	83 f8 02             	cmp    eax,0x2
    68a8:	0f 85 d2 00 00 00    	jne    6980 <_ZN3std4sync4once4Once10call_inner17hb3a655ef2ff7c156E+0x2b0>
    68ae:	41 ff d7             	call   r15
    68b1:	48 89 d9             	mov    rcx,rbx
    68b4:	48 83 e1 fc          	and    rcx,0xfffffffffffffffc
    68b8:	48 89 04 24          	mov    QWORD PTR [rsp],rax
    68bc:	c6 44 24 10 00       	mov    BYTE PTR [rsp+0x10],0x0
    68c1:	48 89 4c 24 08       	mov    QWORD PTR [rsp+0x8],rcx
    68c6:	48 89 d8             	mov    rax,rbx
    68c9:	48 8d 4c 24 02       	lea    rcx,[rsp+0x2]
    68ce:	f0 49 0f b1 0c 24    	lock cmpxchg QWORD PTR [r12],rcx
    68d4:	0f 84 7c 00 00 00    	je     6956 <_ZN3std4sync4once4Once10call_inner17hb3a655ef2ff7c156E+0x286>
    68da:	48 89 c3             	mov    rbx,rax
    68dd:	48 8b 04 24          	mov    rax,QWORD PTR [rsp]
    68e1:	48 85 c0             	test   rax,rax
    68e4:	74 ba                	je     68a0 <_ZN3std4sync4once4Once10call_inner17hb3a655ef2ff7c156E+0x1d0>
    68e6:	f0 48 83 28 01       	lock sub QWORD PTR [rax],0x1
    68eb:	75 b3                	jne    68a0 <_ZN3std4sync4once4Once10call_inner17hb3a655ef2ff7c156E+0x1d0>
    68ed:	48 8b 3c 24          	mov    rdi,QWORD PTR [rsp]
    68f1:	e8 ba 52 00 00       	call   bbb0 <_ZN5alloc4sync12Arc$LT$T$GT$9drop_slow17h78b3f7c9a3fd0c3bE>
    68f6:	eb a8                	jmp    68a0 <_ZN3std4sync4once4Once10call_inner17hb3a655ef2ff7c156E+0x1d0>
    68f8:	0f 1f 84 00 00 00 00 	nop    DWORD PTR [rax+rax*1+0x0]
    68ff:	00 
    6900:	41 ff d7             	call   r15
    6903:	48 89 c3             	mov    rbx,rax
    6906:	f0 83 68 28 01       	lock sub DWORD PTR [rax+0x28],0x1
    690b:	74 3a                	je     6947 <_ZN3std4sync4once4Once10call_inner17hb3a655ef2ff7c156E+0x277>
    690d:	48 89 dd             	mov    rbp,rbx
    6910:	48 83 c5 28          	add    rbp,0x28
    6914:	66 2e 0f 1f 84 00 00 	nop    WORD PTR cs:[rax+rax*1+0x0]
    691b:	00 00 00 
    691e:	66 90                	xchg   ax,ax
    6920:	bf ca 00 00 00       	mov    edi,0xca
    6925:	48 89 ee             	mov    rsi,rbp
    6928:	ba 80 00 00 00       	mov    edx,0x80
    692d:	b9 ff ff ff ff       	mov    ecx,0xffffffff
    6932:	45 31 c0             	xor    r8d,r8d
    6935:	31 c0                	xor    eax,eax
    6937:	41 ff d6             	call   r14
    693a:	b8 01 00 00 00       	mov    eax,0x1
    693f:	f0 44 0f b1 6d 00    	lock cmpxchg DWORD PTR [rbp+0x0],r13d
    6945:	75 d9                	jne    6920 <_ZN3std4sync4once4Once10call_inner17hb3a655ef2ff7c156E+0x250>
    6947:	f0 48 83 2b 01       	lock sub QWORD PTR [rbx],0x1
    694c:	75 08                	jne    6956 <_ZN3std4sync4once4Once10call_inner17hb3a655ef2ff7c156E+0x286>
    694e:	48 89 df             	mov    rdi,rbx
    6951:	e8 5a 52 00 00       	call   bbb0 <_ZN5alloc4sync12Arc$LT$T$GT$9drop_slow17h78b3f7c9a3fd0c3bE>
    6956:	8a 44 24 10          	mov    al,BYTE PTR [rsp+0x10]
    695a:	84 c0                	test   al,al
    695c:	74 a2                	je     6900 <_ZN3std4sync4once4Once10call_inner17hb3a655ef2ff7c156E+0x230>
    695e:	48 8b 04 24          	mov    rax,QWORD PTR [rsp]
    6962:	48 85 c0             	test   rax,rax
    6965:	74 19                	je     6980 <_ZN3std4sync4once4Once10call_inner17hb3a655ef2ff7c156E+0x2b0>
    6967:	f0 48 83 28 01       	lock sub QWORD PTR [rax],0x1
    696c:	75 12                	jne    6980 <_ZN3std4sync4once4Once10call_inner17hb3a655ef2ff7c156E+0x2b0>
    696e:	48 8b 3c 24          	mov    rdi,QWORD PTR [rsp]
    6972:	e8 39 52 00 00       	call   bbb0 <_ZN5alloc4sync12Arc$LT$T$GT$9drop_slow17h78b3f7c9a3fd0c3bE>
    6977:	49 8b 1c 24          	mov    rbx,QWORD PTR [r12]
    697b:	e9 f6 fe ff ff       	jmp    6876 <_ZN3std4sync4once4Once10call_inner17hb3a655ef2ff7c156E+0x1a6>
    6980:	49 8b 1c 24          	mov    rbx,QWORD PTR [r12]
    6984:	e9 ed fe ff ff       	jmp    6876 <_ZN3std4sync4once4Once10call_inner17hb3a655ef2ff7c156E+0x1a6>
    6989:	4c 89 64 24 18       	mov    QWORD PTR [rsp+0x18],r12
    698e:	48 c7 44 24 20 01 00 	mov    QWORD PTR [rsp+0x20],0x1
    6995:	00 00 
    6997:	49 83 fd 01          	cmp    r13,0x1
    699b:	0f 94 44 24 08       	sete   BYTE PTR [rsp+0x8]
    69a0:	48 c7 04 24 03 00 00 	mov    QWORD PTR [rsp],0x3
    69a7:	00 
    69a8:	48 89 e6             	mov    rsi,rsp
    69ab:	48 8b 7c 24 28       	mov    rdi,QWORD PTR [rsp+0x28]
    69b0:	48 8b 44 24 30       	mov    rax,QWORD PTR [rsp+0x30]
    69b5:	ff 50 20             	call   QWORD PTR [rax+0x20]
    69b8:	48 8b 04 24          	mov    rax,QWORD PTR [rsp]
    69bc:	48 89 44 24 20       	mov    QWORD PTR [rsp+0x20],rax
    69c1:	48 8d 7c 24 18       	lea    rdi,[rsp+0x18]
    69c6:	ff 15 8c 33 24 00    	call   QWORD PTR [rip+0x24338c]        # 249d58 <_GLOBAL_OFFSET_TABLE_+0x400>
    69cc:	48 83 c4 38          	add    rsp,0x38
    69d0:	5b                   	pop    rbx
    69d1:	41 5c                	pop    r12
    69d3:	41 5d                	pop    r13
    69d5:	41 5e                	pop    r14
    69d7:	41 5f                	pop    r15
    69d9:	5d                   	pop    rbp
    69da:	c3                   	ret    
    69db:	48 8d 3d 1e 64 03 00 	lea    rdi,[rip+0x3641e]        # 3ce00 <str.5+0xbe0>
    69e2:	48 8d 15 cf 12 24 00 	lea    rdx,[rip+0x2412cf]        # 247cb8 <__init_array_end+0xa28>
    69e9:	be 39 00 00 00       	mov    esi,0x39
    69ee:	ff 15 b4 33 24 00    	call   QWORD PTR [rip+0x2433b4]        # 249da8 <_GLOBAL_OFFSET_TABLE_+0x450>
    69f4:	0f 0b                	ud2    
    69f6:	48 8d 3d 3c 64 03 00 	lea    rdi,[rip+0x3643c]        # 3ce39 <str.5+0xc19>
    69fd:	48 8d 15 cc 12 24 00 	lea    rdx,[rip+0x2412cc]        # 247cd0 <__init_array_end+0xa40>
    6a04:	be 2a 00 00 00       	mov    esi,0x2a
    6a09:	e8 72 01 00 00       	call   6b80 <_ZN3std9panicking11begin_panic17h48f4e0cc0c79ec4fE>
    6a0e:	0f 0b                	ud2    
    6a10:	48 89 c3             	mov    rbx,rax
    6a13:	48 8d 7c 24 18       	lea    rdi,[rsp+0x18]
    6a18:	e8 33 28 00 00       	call   9250 <_ZN4core3ptr49drop_in_place$LT$std..sync..once..WaiterQueue$GT$17h9077b907734eea45E>
    6a1d:	eb 0d                	jmp    6a2c <_ZN3std4sync4once4Once10call_inner17hb3a655ef2ff7c156E+0x35c>
    6a1f:	eb 00                	jmp    6a21 <_ZN3std4sync4once4Once10call_inner17hb3a655ef2ff7c156E+0x351>
    6a21:	48 89 c3             	mov    rbx,rax
    6a24:	48 89 e7             	mov    rdi,rsp
    6a27:	e8 a4 27 00 00       	call   91d0 <_ZN4core3ptr44drop_in_place$LT$std..sync..once..Waiter$GT$17h2baffca190225aefE>
    6a2c:	48 89 df             	mov    rdi,rbx
    6a2f:	e8 dc e8 ff ff       	call   5310 <_Unwind_Resume@plt>
    6a34:	0f 0b                	ud2    
    6a36:	66 2e 0f 1f 84 00 00 	nop    WORD PTR cs:[rax+rax*1+0x0]
    6a3d:	00 00 00 

0000000000006a40 <_ZN3std9panicking11panic_count17is_zero_slow_path17hfc066dbac5641112E>:
    6a40:	50                   	push   rax
    6a41:	66 66 66 64 48 8b 04 	data16 data16 data16 mov rax,QWORD PTR fs:0x0
    6a48:	25 00 00 00 00 
    6a4d:	83 b8 e0 ff ff ff 01 	cmp    DWORD PTR [rax-0x20],0x1
    6a54:	75 09                	jne    6a5f <_ZN3std9panicking11panic_count17is_zero_slow_path17hfc066dbac5641112E+0x1f>
    6a56:	48 8d 80 e8 ff ff ff 	lea    rax,[rax-0x18]
    6a5d:	eb 0a                	jmp    6a69 <_ZN3std9panicking11panic_count17is_zero_slow_path17hfc066dbac5641112E+0x29>
    6a5f:	e8 dc 19 01 00       	call   18440 <_ZN3std6thread5local4fast12Key$LT$T$GT$14try_initialize17haccbded2c806be4eE>
    6a64:	48 85 c0             	test   rax,rax
    6a67:	74 09                	je     6a72 <_ZN3std9panicking11panic_count17is_zero_slow_path17hfc066dbac5641112E+0x32>
    6a69:	48 83 38 00          	cmp    QWORD PTR [rax],0x0
    6a6d:	0f 94 c0             	sete   al
    6a70:	59                   	pop    rcx
    6a71:	c3                   	ret    
    6a72:	48 8d 3d 1a 5d 03 00 	lea    rdi,[rip+0x35d1a]        # 3c793 <str.5+0x573>
    6a79:	48 8d 0d 18 0b 24 00 	lea    rcx,[rip+0x240b18]        # 247598 <__init_array_end+0x308>
    6a80:	4c 8d 05 09 0e 24 00 	lea    r8,[rip+0x240e09]        # 247890 <__init_array_end+0x600>
    6a87:	48 89 e2             	mov    rdx,rsp
    6a8a:	be 46 00 00 00       	mov    esi,0x46
    6a8f:	ff 15 53 31 24 00    	call   QWORD PTR [rip+0x243153]        # 249be8 <_GLOBAL_OFFSET_TABLE_+0x290>
    6a95:	0f 0b                	ud2    
    6a97:	66 0f 1f 84 00 00 00 	nop    WORD PTR [rax+rax*1+0x0]
    6a9e:	00 00 

0000000000006aa0 <_ZN3std9panicking3try7cleanup17h6ee12c0965581ea5E>:
    6aa0:	41 56                	push   r14
    6aa2:	53                   	push   rbx
    6aa3:	48 83 ec 18          	sub    rsp,0x18
    6aa7:	ff 15 83 33 24 00    	call   QWORD PTR [rip+0x243383]        # 249e30 <_GLOBAL_OFFSET_TABLE_+0x4d8>
    6aad:	48 89 c3             	mov    rbx,rax
    6ab0:	49 89 d6             	mov    r14,rdx
    6ab3:	48 89 44 24 08       	mov    QWORD PTR [rsp+0x8],rax
    6ab8:	48 89 54 24 10       	mov    QWORD PTR [rsp+0x10],rdx
    6abd:	48 8d 05 ac 36 24 00 	lea    rax,[rip+0x2436ac]        # 24a170 <_ZN3std9panicking11panic_count18GLOBAL_PANIC_COUNT17h8c3ad35feb279013E>
    6ac4:	f0 48 83 28 01       	lock sub QWORD PTR [rax],0x1
    6ac9:	66 66 66 64 48 8b 04 	data16 data16 data16 mov rax,QWORD PTR fs:0x0
    6ad0:	25 00 00 00 00 
    6ad5:	83 b8 e0 ff ff ff 01 	cmp    DWORD PTR [rax-0x20],0x1
    6adc:	75 09                	jne    6ae7 <_ZN3std9panicking3try7cleanup17h6ee12c0965581ea5E+0x47>
    6ade:	48 8d 80 e8 ff ff ff 	lea    rax,[rax-0x18]
    6ae5:	eb 0a                	jmp    6af1 <_ZN3std9panicking3try7cleanup17h6ee12c0965581ea5E+0x51>
    6ae7:	e8 54 19 01 00       	call   18440 <_ZN3std6thread5local4fast12Key$LT$T$GT$14try_initialize17haccbded2c806be4eE>
    6aec:	48 85 c0             	test   rax,rax
    6aef:	74 12                	je     6b03 <_ZN3std9panicking3try7cleanup17h6ee12c0965581ea5E+0x63>
    6af1:	48 83 00 ff          	add    QWORD PTR [rax],0xffffffffffffffff
    6af5:	48 89 d8             	mov    rax,rbx
    6af8:	4c 89 f2             	mov    rdx,r14
    6afb:	48 83 c4 18          	add    rsp,0x18
    6aff:	5b                   	pop    rbx
    6b00:	41 5e                	pop    r14
    6b02:	c3                   	ret    
    6b03:	48 8d 3d 89 5c 03 00 	lea    rdi,[rip+0x35c89]        # 3c793 <str.5+0x573>
    6b0a:	48 8d 0d 87 0a 24 00 	lea    rcx,[rip+0x240a87]        # 247598 <__init_array_end+0x308>
    6b11:	4c 8d 05 78 0d 24 00 	lea    r8,[rip+0x240d78]        # 247890 <__init_array_end+0x600>
    6b18:	48 89 e2             	mov    rdx,rsp
    6b1b:	be 46 00 00 00       	mov    esi,0x46
    6b20:	ff 15 c2 30 24 00    	call   QWORD PTR [rip+0x2430c2]        # 249be8 <_GLOBAL_OFFSET_TABLE_+0x290>
    6b26:	0f 0b                	ud2    
    6b28:	48 89 c3             	mov    rbx,rax
    6b2b:	48 8d 7c 24 08       	lea    rdi,[rsp+0x8]
    6b30:	e8 0b 24 00 00       	call   8f40 <_ZN4core3ptr214drop_in_place$LT$alloc..boxed..Box$LT$dyn$u20$core..ops..function..Fn$LT$$LP$$RF$core..panic..panic_info..PanicInfo$C$$RP$$GT$$u2b$Output$u20$$u3d$$u20$$LP$$RP$$u2b$core..marker..Sync$u2b$core..marker..Send$GT$$GT$17h35a512bd6dc4ce99E>
    6b35:	48 89 df             	mov    rdi,rbx
    6b38:	e8 d3 e7 ff ff       	call   5310 <_Unwind_Resume@plt>
    6b3d:	0f 0b                	ud2    
    6b3f:	90                   	nop

0000000000006b40 <_ZN3std9panicking15begin_panic_fmt17hbfade3aea4ee91c4E>:
    6b40:	53                   	push   rbx
    6b41:	48 83 ec 20          	sub    rsp,0x20
    6b45:	48 89 fb             	mov    rbx,rdi
    6b48:	48 89 f7             	mov    rdi,rsi
    6b4b:	ff 15 bf 30 24 00    	call   QWORD PTR [rip+0x2430bf]        # 249c10 <_GLOBAL_OFFSET_TABLE_+0x2b8>
    6b51:	48 8d 0d 50 56 03 00 	lea    rcx,[rip+0x35650]        # 3c1a8 <str.0+0x13a8>
    6b58:	48 89 0c 24          	mov    QWORD PTR [rsp],rcx
    6b5c:	48 8d 0d 1d 09 24 00 	lea    rcx,[rip+0x24091d]        # 247480 <__init_array_end+0x1f0>
    6b63:	48 89 4c 24 08       	mov    QWORD PTR [rsp+0x8],rcx
    6b68:	48 89 5c 24 10       	mov    QWORD PTR [rsp+0x10],rbx
    6b6d:	48 89 44 24 18       	mov    QWORD PTR [rsp+0x18],rax
    6b72:	48 89 e7             	mov    rdi,rsp
    6b75:	ff 15 1d 31 24 00    	call   QWORD PTR [rip+0x24311d]        # 249c98 <_GLOBAL_OFFSET_TABLE_+0x340>
    6b7b:	0f 0b                	ud2    
    6b7d:	0f 1f 00             	nop    DWORD PTR [rax]

0000000000006b80 <_ZN3std9panicking11begin_panic17h48f4e0cc0c79ec4fE>:
    6b80:	41 56                	push   r14
    6b82:	53                   	push   rbx
    6b83:	48 83 ec 18          	sub    rsp,0x18
    6b87:	49 89 f6             	mov    r14,rsi
    6b8a:	48 89 fb             	mov    rbx,rdi
    6b8d:	48 89 d7             	mov    rdi,rdx
    6b90:	ff 15 7a 30 24 00    	call   QWORD PTR [rip+0x24307a]        # 249c10 <_GLOBAL_OFFSET_TABLE_+0x2b8>
    6b96:	48 89 1c 24          	mov    QWORD PTR [rsp],rbx
    6b9a:	4c 89 74 24 08       	mov    QWORD PTR [rsp+0x8],r14
    6b9f:	48 89 44 24 10       	mov    QWORD PTR [rsp+0x10],rax
    6ba4:	48 89 e7             	mov    rdi,rsp
    6ba7:	e8 64 6a 01 00       	call   1d610 <_ZN3std10sys_common9backtrace26__rust_end_short_backtrace17ha073e1d5e55fcde3E>
    6bac:	0f 0b                	ud2    
    6bae:	66 90                	xchg   ax,ax

0000000000006bb0 <_ZN3std3sys4unix4weak13Weak$LT$F$GT$10initialize17h0fa9ea4834bc725fE>:
    6bb0:	41 56                	push   r14
    6bb2:	53                   	push   rbx
    6bb3:	50                   	push   rax
    6bb4:	4c 8b 35 7d 34 24 00 	mov    r14,QWORD PTR [rip+0x24347d]        # 24a038 <_ZN3std3sys4unix2fs9try_statx5statx5statx17h54fece1b5d8e7479E>
    6bbb:	48 8b 1d 7e 34 24 00 	mov    rbx,QWORD PTR [rip+0x24347e]        # 24a040 <_ZN3std3sys4unix2fs9try_statx5statx5statx17h54fece1b5d8e7479E+0x8>
    6bc2:	4c 89 f7             	mov    rdi,r14
    6bc5:	31 f6                	xor    esi,esi
    6bc7:	48 89 da             	mov    rdx,rbx
    6bca:	ff 15 80 2e 24 00    	call   QWORD PTR [rip+0x242e80]        # 249a50 <memchr@GLIBC_2.2.5>
    6bd0:	48 85 c0             	test   rax,rax
    6bd3:	74 26                	je     6bfb <_ZN3std3sys4unix4weak13Weak$LT$F$GT$10initialize17h0fa9ea4834bc725fE+0x4b>
    6bd5:	4c 29 f0             	sub    rax,r14
    6bd8:	48 83 c0 01          	add    rax,0x1
    6bdc:	48 39 d8             	cmp    rax,rbx
    6bdf:	75 1a                	jne    6bfb <_ZN3std3sys4unix4weak13Weak$LT$F$GT$10initialize17h0fa9ea4834bc725fE+0x4b>
    6be1:	31 ff                	xor    edi,edi
    6be3:	4c 89 f6             	mov    rsi,r14
    6be6:	ff 15 c4 32 24 00    	call   QWORD PTR [rip+0x2432c4]        # 249eb0 <dlsym@GLIBC_2.2.5>
    6bec:	48 89 05 55 34 24 00 	mov    QWORD PTR [rip+0x243455],rax        # 24a048 <_ZN3std3sys4unix2fs9try_statx5statx5statx17h54fece1b5d8e7479E+0x10>
    6bf3:	48 83 c4 08          	add    rsp,0x8
    6bf7:	5b                   	pop    rbx
    6bf8:	41 5e                	pop    r14
    6bfa:	c3                   	ret    
    6bfb:	48 c7 05 42 34 24 00 	mov    QWORD PTR [rip+0x243442],0x0        # 24a048 <_ZN3std3sys4unix2fs9try_statx5statx5statx17h54fece1b5d8e7479E+0x10>
    6c02:	00 00 00 00 
    6c06:	31 c0                	xor    eax,eax
    6c08:	48 83 c4 08          	add    rsp,0x8
    6c0c:	5b                   	pop    rbx
    6c0d:	41 5e                	pop    r14
    6c0f:	c3                   	ret    

0000000000006c10 <_ZN5alloc7raw_vec19RawVec$LT$T$C$A$GT$7reserve21do_reserve_and_handle17h40f2a174e97602beE>:
    6c10:	53                   	push   rbx
    6c11:	48 83 ec 30          	sub    rsp,0x30
    6c15:	48 89 f0             	mov    rax,rsi
    6c18:	48 01 d0             	add    rax,rdx
    6c1b:	72 75                	jb     6c92 <_ZN5alloc7raw_vec19RawVec$LT$T$C$A$GT$7reserve21do_reserve_and_handle17h40f2a174e97602beE+0x82>
    6c1d:	48 89 fb             	mov    rbx,rdi
    6c20:	48 8b 4f 08          	mov    rcx,QWORD PTR [rdi+0x8]
    6c24:	48 8d 14 09          	lea    rdx,[rcx+rcx*1]
    6c28:	48 39 c2             	cmp    rdx,rax
    6c2b:	48 0f 47 c2          	cmova  rax,rdx
    6c2f:	48 83 f8 09          	cmp    rax,0x9
    6c33:	be 08 00 00 00       	mov    esi,0x8
    6c38:	48 0f 43 f0          	cmovae rsi,rax
    6c3c:	48 85 c9             	test   rcx,rcx
    6c3f:	74 18                	je     6c59 <_ZN5alloc7raw_vec19RawVec$LT$T$C$A$GT$7reserve21do_reserve_and_handle17h40f2a174e97602beE+0x49>
    6c41:	48 8b 03             	mov    rax,QWORD PTR [rbx]
    6c44:	48 89 44 24 18       	mov    QWORD PTR [rsp+0x18],rax
    6c49:	48 89 4c 24 20       	mov    QWORD PTR [rsp+0x20],rcx
    6c4e:	48 c7 44 24 28 01 00 	mov    QWORD PTR [rsp+0x28],0x1
    6c55:	00 00 
    6c57:	eb 09                	jmp    6c62 <_ZN5alloc7raw_vec19RawVec$LT$T$C$A$GT$7reserve21do_reserve_and_handle17h40f2a174e97602beE+0x52>
    6c59:	48 c7 44 24 18 00 00 	mov    QWORD PTR [rsp+0x18],0x0
    6c60:	00 00 
    6c62:	48 89 e7             	mov    rdi,rsp
    6c65:	48 8d 4c 24 18       	lea    rcx,[rsp+0x18]
    6c6a:	ba 01 00 00 00       	mov    edx,0x1
    6c6f:	e8 7c 61 02 00       	call   2cdf0 <_ZN5alloc7raw_vec11finish_grow17h964c17eed50f37c6E>
    6c74:	83 3c 24 01          	cmp    DWORD PTR [rsp],0x1
    6c78:	74 0e                	je     6c88 <_ZN5alloc7raw_vec19RawVec$LT$T$C$A$GT$7reserve21do_reserve_and_handle17h40f2a174e97602beE+0x78>
    6c7a:	0f 10 44 24 08       	movups xmm0,XMMWORD PTR [rsp+0x8]
    6c7f:	0f 11 03             	movups XMMWORD PTR [rbx],xmm0
    6c82:	48 83 c4 30          	add    rsp,0x30
    6c86:	5b                   	pop    rbx
    6c87:	c3                   	ret    
    6c88:	48 8b 74 24 10       	mov    rsi,QWORD PTR [rsp+0x10]
    6c8d:	48 85 f6             	test   rsi,rsi
    6c90:	75 08                	jne    6c9a <_ZN5alloc7raw_vec19RawVec$LT$T$C$A$GT$7reserve21do_reserve_and_handle17h40f2a174e97602beE+0x8a>
    6c92:	ff 15 d8 2d 24 00    	call   QWORD PTR [rip+0x242dd8]        # 249a70 <_GLOBAL_OFFSET_TABLE_+0x118>
    6c98:	0f 0b                	ud2    
    6c9a:	48 8b 7c 24 08       	mov    rdi,QWORD PTR [rsp+0x8]
    6c9f:	ff 15 e3 2e 24 00    	call   QWORD PTR [rip+0x242ee3]        # 249b88 <_GLOBAL_OFFSET_TABLE_+0x230>
    6ca5:	0f 0b                	ud2    
    6ca7:	66 0f 1f 84 00 00 00 	nop    WORD PTR [rax+rax*1+0x0]
    6cae:	00 00 

0000000000006cb0 <_ZN4core9panicking13assert_failed17h1fdba7af70a71403E>:
    6cb0:	48 83 ec 58          	sub    rsp,0x58
    6cb4:	48 89 7c 24 10       	mov    QWORD PTR [rsp+0x10],rdi
    6cb9:	48 8d 05 10 5d 03 00 	lea    rax,[rip+0x35d10]        # 3c9d0 <str.5+0x7b0>
    6cc0:	48 89 44 24 18       	mov    QWORD PTR [rsp+0x18],rax
    6cc5:	0f 10 06             	movups xmm0,XMMWORD PTR [rsi]
    6cc8:	0f 10 4e 10          	movups xmm1,XMMWORD PTR [rsi+0x10]
    6ccc:	0f 10 56 20          	movups xmm2,XMMWORD PTR [rsi+0x20]
    6cd0:	0f 29 54 24 40       	movaps XMMWORD PTR [rsp+0x40],xmm2
    6cd5:	0f 29 4c 24 30       	movaps XMMWORD PTR [rsp+0x30],xmm1
    6cda:	0f 29 44 24 20       	movaps XMMWORD PTR [rsp+0x20],xmm0
    6cdf:	48 8d 05 0a 1e 24 00 	lea    rax,[rip+0x241e0a]        # 248af0 <_ZN6object3elf12ELF_NOTE_GNU17h7e493dca1d7c0067E+0xc0>
    6ce6:	48 89 04 24          	mov    QWORD PTR [rsp],rax
    6cea:	48 8d 15 4f 1d 24 00 	lea    rdx,[rip+0x241d4f]        # 248a40 <_ZN6object3elf12ELF_NOTE_GNU17h7e493dca1d7c0067E+0x10>
    6cf1:	48 8d 74 24 10       	lea    rsi,[rsp+0x10]
    6cf6:	48 8d 4c 24 18       	lea    rcx,[rsp+0x18]
    6cfb:	4c 8d 4c 24 20       	lea    r9,[rsp+0x20]
    6d00:	bf 01 00 00 00       	mov    edi,0x1
    6d05:	49 89 d0             	mov    r8,rdx
    6d08:	ff 15 3a 32 24 00    	call   QWORD PTR [rip+0x24323a]        # 249f48 <_GLOBAL_OFFSET_TABLE_+0x5f0>
    6d0e:	0f 0b                	ud2    

0000000000006d10 <_ZN5alloc7raw_vec19RawVec$LT$T$C$A$GT$7reserve21do_reserve_and_handle17h9aa6fc32a2bd5843E>:
    6d10:	41 56                	push   r14
    6d12:	53                   	push   rbx
    6d13:	48 83 ec 38          	sub    rsp,0x38
    6d17:	48 ff c6             	inc    rsi
    6d1a:	0f 84 aa 00 00 00    	je     6dca <_ZN5alloc7raw_vec19RawVec$LT$T$C$A$GT$7reserve21do_reserve_and_handle17h9aa6fc32a2bd5843E+0xba>
    6d20:	49 89 fe             	mov    r14,rdi
    6d23:	48 8b 4f 08          	mov    rcx,QWORD PTR [rdi+0x8]
    6d27:	48 8d 04 09          	lea    rax,[rcx+rcx*1]
    6d2b:	48 39 f0             	cmp    rax,rsi
    6d2e:	48 0f 47 f0          	cmova  rsi,rax
    6d32:	48 83 fe 05          	cmp    rsi,0x5
    6d36:	b8 04 00 00 00       	mov    eax,0x4
    6d3b:	48 0f 43 c6          	cmovae rax,rsi
    6d3f:	ba 70 00 00 00       	mov    edx,0x70
    6d44:	31 db                	xor    ebx,ebx
    6d46:	48 f7 e2             	mul    rdx
    6d49:	0f 91 c3             	setno  bl
    6d4c:	48 c1 e3 03          	shl    rbx,0x3
    6d50:	48 85 c9             	test   rcx,rcx
    6d53:	74 1c                	je     6d71 <_ZN5alloc7raw_vec19RawVec$LT$T$C$A$GT$7reserve21do_reserve_and_handle17h9aa6fc32a2bd5843E+0x61>
    6d55:	49 8b 16             	mov    rdx,QWORD PTR [r14]
    6d58:	48 6b c9 70          	imul   rcx,rcx,0x70
    6d5c:	48 89 54 24 20       	mov    QWORD PTR [rsp+0x20],rdx
    6d61:	48 89 4c 24 28       	mov    QWORD PTR [rsp+0x28],rcx
    6d66:	48 c7 44 24 30 08 00 	mov    QWORD PTR [rsp+0x30],0x8
    6d6d:	00 00 
    6d6f:	eb 09                	jmp    6d7a <_ZN5alloc7raw_vec19RawVec$LT$T$C$A$GT$7reserve21do_reserve_and_handle17h9aa6fc32a2bd5843E+0x6a>
    6d71:	48 c7 44 24 20 00 00 	mov    QWORD PTR [rsp+0x20],0x0
    6d78:	00 00 
    6d7a:	48 8d 7c 24 08       	lea    rdi,[rsp+0x8]
    6d7f:	48 8d 4c 24 20       	lea    rcx,[rsp+0x20]
    6d84:	48 89 c6             	mov    rsi,rax
    6d87:	48 89 da             	mov    rdx,rbx
    6d8a:	e8 21 65 02 00       	call   2d2b0 <_ZN5alloc7raw_vec11finish_grow17he98845a0b1d93051E>
    6d8f:	83 7c 24 08 01       	cmp    DWORD PTR [rsp+0x8],0x1
    6d94:	74 2a                	je     6dc0 <_ZN5alloc7raw_vec19RawVec$LT$T$C$A$GT$7reserve21do_reserve_and_handle17h9aa6fc32a2bd5843E+0xb0>
    6d96:	48 8b 4c 24 10       	mov    rcx,QWORD PTR [rsp+0x10]
    6d9b:	48 8b 44 24 18       	mov    rax,QWORD PTR [rsp+0x18]
    6da0:	49 89 0e             	mov    QWORD PTR [r14],rcx
    6da3:	48 c1 e8 04          	shr    rax,0x4
    6da7:	48 b9 93 24 49 92 24 	movabs rcx,0x2492492492492493
    6dae:	49 92 24 
    6db1:	48 f7 e1             	mul    rcx
    6db4:	49 89 56 08          	mov    QWORD PTR [r14+0x8],rdx
    6db8:	48 83 c4 38          	add    rsp,0x38
    6dbc:	5b                   	pop    rbx
    6dbd:	41 5e                	pop    r14
    6dbf:	c3                   	ret    
    6dc0:	48 8b 74 24 18       	mov    rsi,QWORD PTR [rsp+0x18]
    6dc5:	48 85 f6             	test   rsi,rsi
    6dc8:	75 08                	jne    6dd2 <_ZN5alloc7raw_vec19RawVec$LT$T$C$A$GT$7reserve21do_reserve_and_handle17h9aa6fc32a2bd5843E+0xc2>
    6dca:	ff 15 a0 2c 24 00    	call   QWORD PTR [rip+0x242ca0]        # 249a70 <_GLOBAL_OFFSET_TABLE_+0x118>
    6dd0:	0f 0b                	ud2    
    6dd2:	48 8b 7c 24 10       	mov    rdi,QWORD PTR [rsp+0x10]
    6dd7:	ff 15 ab 2d 24 00    	call   QWORD PTR [rip+0x242dab]        # 249b88 <_GLOBAL_OFFSET_TABLE_+0x230>
    6ddd:	0f 0b                	ud2    
    6ddf:	90                   	nop

0000000000006de0 <_ZN5alloc7raw_vec19RawVec$LT$T$C$A$GT$7reserve21do_reserve_and_handle17hfc678e5a0ca02b14E>:
    6de0:	41 56                	push   r14
    6de2:	53                   	push   rbx
    6de3:	48 83 ec 38          	sub    rsp,0x38
    6de7:	48 ff c6             	inc    rsi
    6dea:	0f 84 9d 00 00 00    	je     6e8d <_ZN5alloc7raw_vec19RawVec$LT$T$C$A$GT$7reserve21do_reserve_and_handle17hfc678e5a0ca02b14E+0xad>
    6df0:	49 89 fe             	mov    r14,rdi
    6df3:	48 8b 4f 08          	mov    rcx,QWORD PTR [rdi+0x8]
    6df7:	48 8d 04 09          	lea    rax,[rcx+rcx*1]
    6dfb:	48 39 f0             	cmp    rax,rsi
    6dfe:	48 0f 47 f0          	cmova  rsi,rax
    6e02:	48 83 fe 05          	cmp    rsi,0x5
    6e06:	b8 04 00 00 00       	mov    eax,0x4
    6e0b:	48 0f 43 c6          	cmovae rax,rsi
    6e0f:	ba 10 00 00 00       	mov    edx,0x10
    6e14:	31 db                	xor    ebx,ebx
    6e16:	48 f7 e2             	mul    rdx
    6e19:	0f 91 c3             	setno  bl
    6e1c:	48 c1 e3 03          	shl    rbx,0x3
    6e20:	48 85 c9             	test   rcx,rcx
    6e23:	74 1c                	je     6e41 <_ZN5alloc7raw_vec19RawVec$LT$T$C$A$GT$7reserve21do_reserve_and_handle17hfc678e5a0ca02b14E+0x61>
    6e25:	49 8b 16             	mov    rdx,QWORD PTR [r14]
    6e28:	48 c1 e1 04          	shl    rcx,0x4
    6e2c:	48 89 54 24 20       	mov    QWORD PTR [rsp+0x20],rdx
    6e31:	48 89 4c 24 28       	mov    QWORD PTR [rsp+0x28],rcx
    6e36:	48 c7 44 24 30 08 00 	mov    QWORD PTR [rsp+0x30],0x8
    6e3d:	00 00 
    6e3f:	eb 09                	jmp    6e4a <_ZN5alloc7raw_vec19RawVec$LT$T$C$A$GT$7reserve21do_reserve_and_handle17hfc678e5a0ca02b14E+0x6a>
    6e41:	48 c7 44 24 20 00 00 	mov    QWORD PTR [rsp+0x20],0x0
    6e48:	00 00 
    6e4a:	48 8d 7c 24 08       	lea    rdi,[rsp+0x8]
    6e4f:	48 8d 4c 24 20       	lea    rcx,[rsp+0x20]
    6e54:	48 89 c6             	mov    rsi,rax
    6e57:	48 89 da             	mov    rdx,rbx
    6e5a:	e8 51 64 02 00       	call   2d2b0 <_ZN5alloc7raw_vec11finish_grow17he98845a0b1d93051E>
    6e5f:	83 7c 24 08 01       	cmp    DWORD PTR [rsp+0x8],0x1
    6e64:	74 1d                	je     6e83 <_ZN5alloc7raw_vec19RawVec$LT$T$C$A$GT$7reserve21do_reserve_and_handle17hfc678e5a0ca02b14E+0xa3>
    6e66:	48 8b 44 24 10       	mov    rax,QWORD PTR [rsp+0x10]
    6e6b:	48 8b 4c 24 18       	mov    rcx,QWORD PTR [rsp+0x18]
    6e70:	49 89 06             	mov    QWORD PTR [r14],rax
    6e73:	48 c1 e9 04          	shr    rcx,0x4
    6e77:	49 89 4e 08          	mov    QWORD PTR [r14+0x8],rcx
    6e7b:	48 83 c4 38          	add    rsp,0x38
    6e7f:	5b                   	pop    rbx
    6e80:	41 5e                	pop    r14
    6e82:	c3                   	ret    
    6e83:	48 8b 74 24 18       	mov    rsi,QWORD PTR [rsp+0x18]
    6e88:	48 85 f6             	test   rsi,rsi
    6e8b:	75 08                	jne    6e95 <_ZN5alloc7raw_vec19RawVec$LT$T$C$A$GT$7reserve21do_reserve_and_handle17hfc678e5a0ca02b14E+0xb5>
    6e8d:	ff 15 dd 2b 24 00    	call   QWORD PTR [rip+0x242bdd]        # 249a70 <_GLOBAL_OFFSET_TABLE_+0x118>
    6e93:	0f 0b                	ud2    
    6e95:	48 8b 7c 24 10       	mov    rdi,QWORD PTR [rsp+0x10]
    6e9a:	ff 15 e8 2c 24 00    	call   QWORD PTR [rip+0x242ce8]        # 249b88 <_GLOBAL_OFFSET_TABLE_+0x230>
    6ea0:	0f 0b                	ud2    
    6ea2:	66 2e 0f 1f 84 00 00 	nop    WORD PTR cs:[rax+rax*1+0x0]
    6ea9:	00 00 00 
    6eac:	0f 1f 40 00          	nop    DWORD PTR [rax+0x0]

0000000000006eb0 <_ZN5alloc5alloc18handle_alloc_error17h6ad4108518320222E>:
    6eb0:	50                   	push   rax
    6eb1:	ff 15 69 30 24 00    	call   QWORD PTR [rip+0x243069]        # 249f20 <_GLOBAL_OFFSET_TABLE_+0x5c8>
    6eb7:	0f 0b                	ud2    
    6eb9:	0f 1f 80 00 00 00 00 	nop    DWORD PTR [rax+0x0]

0000000000006ec0 <_ZN5alloc7raw_vec19RawVec$LT$T$C$A$GT$7reserve21do_reserve_and_handle17h2e390988ba6ffb4cE>:
    6ec0:	53                   	push   rbx
    6ec1:	48 83 ec 30          	sub    rsp,0x30
    6ec5:	48 89 f0             	mov    rax,rsi
    6ec8:	48 01 d0             	add    rax,rdx
    6ecb:	72 75                	jb     6f42 <_ZN5alloc7raw_vec19RawVec$LT$T$C$A$GT$7reserve21do_reserve_and_handle17h2e390988ba6ffb4cE+0x82>
    6ecd:	48 89 fb             	mov    rbx,rdi
    6ed0:	48 8b 4f 08          	mov    rcx,QWORD PTR [rdi+0x8]
    6ed4:	48 8d 14 09          	lea    rdx,[rcx+rcx*1]
    6ed8:	48 39 c2             	cmp    rdx,rax
    6edb:	48 0f 47 c2          	cmova  rax,rdx
    6edf:	48 83 f8 09          	cmp    rax,0x9
    6ee3:	be 08 00 00 00       	mov    esi,0x8
    6ee8:	48 0f 43 f0          	cmovae rsi,rax
    6eec:	48 85 c9             	test   rcx,rcx
    6eef:	74 18                	je     6f09 <_ZN5alloc7raw_vec19RawVec$LT$T$C$A$GT$7reserve21do_reserve_and_handle17h2e390988ba6ffb4cE+0x49>
    6ef1:	48 8b 03             	mov    rax,QWORD PTR [rbx]
    6ef4:	48 89 44 24 18       	mov    QWORD PTR [rsp+0x18],rax
    6ef9:	48 89 4c 24 20       	mov    QWORD PTR [rsp+0x20],rcx
    6efe:	48 c7 44 24 28 01 00 	mov    QWORD PTR [rsp+0x28],0x1
    6f05:	00 00 
    6f07:	eb 09                	jmp    6f12 <_ZN5alloc7raw_vec19RawVec$LT$T$C$A$GT$7reserve21do_reserve_and_handle17h2e390988ba6ffb4cE+0x52>
    6f09:	48 c7 44 24 18 00 00 	mov    QWORD PTR [rsp+0x18],0x0
    6f10:	00 00 
    6f12:	48 89 e7             	mov    rdi,rsp
    6f15:	48 8d 4c 24 18       	lea    rcx,[rsp+0x18]
    6f1a:	ba 01 00 00 00       	mov    edx,0x1
    6f1f:	e8 4c ee 02 00       	call   35d70 <_ZN5alloc7raw_vec11finish_grow17h71248e2b745bb28dE>
    6f24:	83 3c 24 01          	cmp    DWORD PTR [rsp],0x1
    6f28:	74 0e                	je     6f38 <_ZN5alloc7raw_vec19RawVec$LT$T$C$A$GT$7reserve21do_reserve_and_handle17h2e390988ba6ffb4cE+0x78>
    6f2a:	0f 10 44 24 08       	movups xmm0,XMMWORD PTR [rsp+0x8]
    6f2f:	0f 11 03             	movups XMMWORD PTR [rbx],xmm0
    6f32:	48 83 c4 30          	add    rsp,0x30
    6f36:	5b                   	pop    rbx
    6f37:	c3                   	ret    
    6f38:	48 8b 74 24 10       	mov    rsi,QWORD PTR [rsp+0x10]
    6f3d:	48 85 f6             	test   rsi,rsi
    6f40:	75 08                	jne    6f4a <_ZN5alloc7raw_vec19RawVec$LT$T$C$A$GT$7reserve21do_reserve_and_handle17h2e390988ba6ffb4cE+0x8a>
    6f42:	ff 15 28 2b 24 00    	call   QWORD PTR [rip+0x242b28]        # 249a70 <_GLOBAL_OFFSET_TABLE_+0x118>
    6f48:	0f 0b                	ud2    
    6f4a:	48 8b 7c 24 08       	mov    rdi,QWORD PTR [rsp+0x8]
    6f4f:	ff 15 33 2c 24 00    	call   QWORD PTR [rip+0x242c33]        # 249b88 <_GLOBAL_OFFSET_TABLE_+0x230>
    6f55:	0f 0b                	ud2    
    6f57:	66 0f 1f 84 00 00 00 	nop    WORD PTR [rax+rax*1+0x0]
    6f5e:	00 00 

0000000000006f60 <_ZN4core6option13expect_failed17h111c62e88059319bE>:
    6f60:	48 83 ec 18          	sub    rsp,0x18
    6f64:	48 89 7c 24 08       	mov    QWORD PTR [rsp+0x8],rdi
    6f69:	48 89 74 24 10       	mov    QWORD PTR [rsp+0x10],rsi
    6f6e:	48 8d 7c 24 08       	lea    rdi,[rsp+0x8]
    6f73:	48 89 d6             	mov    rsi,rdx
    6f76:	e8 45 f6 02 00       	call   365c0 <_ZN4core9panicking13panic_display17h0b2b4cc4e8e79e2eE>
    6f7b:	0f 0b                	ud2    
    6f7d:	0f 1f 00             	nop    DWORD PTR [rax]

0000000000006f80 <_ZN4core9panicking5panic17h0ba7146865b2f9d6E>:
    6f80:	48 83 ec 48          	sub    rsp,0x48
    6f84:	48 89 7c 24 08       	mov    QWORD PTR [rsp+0x8],rdi
    6f89:	48 89 74 24 10       	mov    QWORD PTR [rsp+0x10],rsi
    6f8e:	48 8d 44 24 08       	lea    rax,[rsp+0x8]
    6f93:	48 89 44 24 18       	mov    QWORD PTR [rsp+0x18],rax
    6f98:	48 c7 44 24 20 01 00 	mov    QWORD PTR [rsp+0x20],0x1
    6f9f:	00 00 
    6fa1:	48 c7 44 24 28 00 00 	mov    QWORD PTR [rsp+0x28],0x0
    6fa8:	00 00 
    6faa:	48 8d 05 df 81 03 00 	lea    rax,[rip+0x381df]        # 3f190 <_ZN4core7unicode12unicode_data11white_space17SHORT_OFFSET_RUNS17h561219f27703dfddE+0x2b0>
    6fb1:	48 89 44 24 38       	mov    QWORD PTR [rsp+0x38],rax
    6fb6:	48 c7 44 24 40 00 00 	mov    QWORD PTR [rsp+0x40],0x0
    6fbd:	00 00 
    6fbf:	48 8d 7c 24 18       	lea    rdi,[rsp+0x18]
    6fc4:	48 89 d6             	mov    rsi,rdx
    6fc7:	ff 15 e3 2a 24 00    	call   QWORD PTR [rip+0x242ae3]        # 249ab0 <_GLOBAL_OFFSET_TABLE_+0x158>
    6fcd:	0f 0b                	ud2    
    6fcf:	90                   	nop

0000000000006fd0 <_ZN4core9panicking18panic_bounds_check17h0ffbb3014c878e8aE>:
    6fd0:	48 83 ec 68          	sub    rsp,0x68
    6fd4:	48 89 7c 24 08       	mov    QWORD PTR [rsp+0x8],rdi
    6fd9:	48 89 74 24 10       	mov    QWORD PTR [rsp+0x10],rsi
    6fde:	48 8d 44 24 10       	lea    rax,[rsp+0x10]
    6fe3:	48 89 44 24 18       	mov    QWORD PTR [rsp+0x18],rax
    6fe8:	48 8d 05 e1 33 03 00 	lea    rax,[rip+0x333e1]        # 3a3d0 <_ZN4core3fmt3num3imp52_$LT$impl$u20$core..fmt..Display$u20$for$u20$u64$GT$3fmt17hd77ccdd75b607a51E>
    6fef:	48 89 44 24 20       	mov    QWORD PTR [rsp+0x20],rax
    6ff4:	48 8d 4c 24 08       	lea    rcx,[rsp+0x8]
    6ff9:	48 89 4c 24 28       	mov    QWORD PTR [rsp+0x28],rcx
    6ffe:	48 89 44 24 30       	mov    QWORD PTR [rsp+0x30],rax
    7003:	48 8d 05 9e 21 24 00 	lea    rax,[rip+0x24219e]        # 2491a8 <_ZN6object3elf12ELF_NOTE_GNU17h7e493dca1d7c0067E+0x778>
    700a:	48 89 44 24 38       	mov    QWORD PTR [rsp+0x38],rax
    700f:	48 c7 44 24 40 02 00 	mov    QWORD PTR [rsp+0x40],0x2
    7016:	00 00 
    7018:	48 c7 44 24 48 00 00 	mov    QWORD PTR [rsp+0x48],0x0
    701f:	00 00 
    7021:	48 8d 44 24 18       	lea    rax,[rsp+0x18]
    7026:	48 89 44 24 58       	mov    QWORD PTR [rsp+0x58],rax
    702b:	48 c7 44 24 60 02 00 	mov    QWORD PTR [rsp+0x60],0x2
    7032:	00 00 
    7034:	48 8d 7c 24 38       	lea    rdi,[rsp+0x38]
    7039:	48 89 d6             	mov    rsi,rdx
    703c:	ff 15 6e 2a 24 00    	call   QWORD PTR [rip+0x242a6e]        # 249ab0 <_GLOBAL_OFFSET_TABLE_+0x158>
    7042:	0f 0b                	ud2    
    7044:	66 2e 0f 1f 84 00 00 	nop    WORD PTR cs:[rax+rax*1+0x0]
    704b:	00 00 00 
    704e:	66 90                	xchg   ax,ax

0000000000007050 <_ZN4core9panicking9panic_fmt17h23b9203e89cc61cfE>:
    7050:	48 83 ec 28          	sub    rsp,0x28
    7054:	48 8d 05 35 81 03 00 	lea    rax,[rip+0x38135]        # 3f190 <_ZN4core7unicode12unicode_data11white_space17SHORT_OFFSET_RUNS17h561219f27703dfddE+0x2b0>
    705b:	48 89 44 24 08       	mov    QWORD PTR [rsp+0x8],rax
    7060:	48 8d 05 f1 20 24 00 	lea    rax,[rip+0x2420f1]        # 249158 <_ZN6object3elf12ELF_NOTE_GNU17h7e493dca1d7c0067E+0x728>
    7067:	48 89 44 24 10       	mov    QWORD PTR [rsp+0x10],rax
    706c:	48 89 7c 24 18       	mov    QWORD PTR [rsp+0x18],rdi
    7071:	48 89 74 24 20       	mov    QWORD PTR [rsp+0x20],rsi
    7076:	48 8d 7c 24 08       	lea    rdi,[rsp+0x8]
    707b:	ff 15 17 2c 24 00    	call   QWORD PTR [rip+0x242c17]        # 249c98 <_GLOBAL_OFFSET_TABLE_+0x340>
    7081:	0f 0b                	ud2    
    7083:	66 2e 0f 1f 84 00 00 	nop    WORD PTR cs:[rax+rax*1+0x0]
    708a:	00 00 00 
    708d:	0f 1f 00             	nop    DWORD PTR [rax]

0000000000007090 <_ZN4core6result13unwrap_failed17h32ef6b3156e8fc57E>:
    7090:	48 83 ec 78          	sub    rsp,0x78
    7094:	48 89 7c 24 08       	mov    QWORD PTR [rsp+0x8],rdi
    7099:	48 89 74 24 10       	mov    QWORD PTR [rsp+0x10],rsi
    709e:	48 89 54 24 18       	mov    QWORD PTR [rsp+0x18],rdx
    70a3:	48 89 4c 24 20       	mov    QWORD PTR [rsp+0x20],rcx
    70a8:	48 8d 44 24 08       	lea    rax,[rsp+0x8]
    70ad:	48 89 44 24 28       	mov    QWORD PTR [rsp+0x28],rax
    70b2:	48 8d 05 a7 37 03 00 	lea    rax,[rip+0x337a7]        # 3a860 <_ZN44_$LT$$RF$T$u20$as$u20$core..fmt..Display$GT$3fmt17h0f67468de248b5d6E>
    70b9:	48 89 44 24 30       	mov    QWORD PTR [rsp+0x30],rax
    70be:	48 8d 44 24 18       	lea    rax,[rsp+0x18]
    70c3:	48 89 44 24 38       	mov    QWORD PTR [rsp+0x38],rax
    70c8:	48 8d 05 81 36 03 00 	lea    rax,[rip+0x33681]        # 3a750 <_ZN42_$LT$$RF$T$u20$as$u20$core..fmt..Debug$GT$3fmt17h86de90eb84bcc741E>
    70cf:	48 89 44 24 40       	mov    QWORD PTR [rsp+0x40],rax
    70d4:	48 8d 05 6d 21 24 00 	lea    rax,[rip+0x24216d]        # 249248 <_ZN6object3elf12ELF_NOTE_GNU17h7e493dca1d7c0067E+0x818>
    70db:	48 89 44 24 48       	mov    QWORD PTR [rsp+0x48],rax
    70e0:	48 c7 44 24 50 02 00 	mov    QWORD PTR [rsp+0x50],0x2
    70e7:	00 00 
    70e9:	48 c7 44 24 58 00 00 	mov    QWORD PTR [rsp+0x58],0x0
    70f0:	00 00 
    70f2:	48 8d 44 24 28       	lea    rax,[rsp+0x28]
    70f7:	48 89 44 24 68       	mov    QWORD PTR [rsp+0x68],rax
    70fc:	48 c7 44 24 70 02 00 	mov    QWORD PTR [rsp+0x70],0x2
    7103:	00 00 
    7105:	48 8d 7c 24 48       	lea    rdi,[rsp+0x48]
    710a:	4c 89 c6             	mov    rsi,r8
    710d:	ff 15 9d 29 24 00    	call   QWORD PTR [rip+0x24299d]        # 249ab0 <_GLOBAL_OFFSET_TABLE_+0x158>
    7113:	0f 0b                	ud2    
    7115:	66 2e 0f 1f 84 00 00 	nop    WORD PTR cs:[rax+rax*1+0x0]
    711c:	00 00 00 
    711f:	90                   	nop

0000000000007120 <_ZN4core5slice5index26slice_start_index_len_fail17h861a0e0b1e4efed4E>:
    7120:	48 83 ec 68          	sub    rsp,0x68
    7124:	48 89 7c 24 08       	mov    QWORD PTR [rsp+0x8],rdi
    7129:	48 89 74 24 10       	mov    QWORD PTR [rsp+0x10],rsi
    712e:	48 8d 44 24 08       	lea    rax,[rsp+0x8]
    7133:	48 89 44 24 18       	mov    QWORD PTR [rsp+0x18],rax
    7138:	48 8d 05 91 32 03 00 	lea    rax,[rip+0x33291]        # 3a3d0 <_ZN4core3fmt3num3imp52_$LT$impl$u20$core..fmt..Display$u20$for$u20$u64$GT$3fmt17hd77ccdd75b607a51E>
    713f:	48 89 44 24 20       	mov    QWORD PTR [rsp+0x20],rax
    7144:	48 8d 4c 24 10       	lea    rcx,[rsp+0x10]
    7149:	48 89 4c 24 28       	mov    QWORD PTR [rsp+0x28],rcx
    714e:	48 89 44 24 30       	mov    QWORD PTR [rsp+0x30],rax
    7153:	48 8d 05 1e 22 24 00 	lea    rax,[rip+0x24221e]        # 249378 <_ZN6object3elf12ELF_NOTE_GNU17h7e493dca1d7c0067E+0x948>
    715a:	48 89 44 24 38       	mov    QWORD PTR [rsp+0x38],rax
    715f:	48 c7 44 24 40 02 00 	mov    QWORD PTR [rsp+0x40],0x2
    7166:	00 00 
    7168:	48 c7 44 24 48 00 00 	mov    QWORD PTR [rsp+0x48],0x0
    716f:	00 00 
    7171:	48 8d 44 24 18       	lea    rax,[rsp+0x18]
    7176:	48 89 44 24 58       	mov    QWORD PTR [rsp+0x58],rax
    717b:	48 c7 44 24 60 02 00 	mov    QWORD PTR [rsp+0x60],0x2
    7182:	00 00 
    7184:	48 8d 7c 24 38       	lea    rdi,[rsp+0x38]
    7189:	48 89 d6             	mov    rsi,rdx
    718c:	ff 15 1e 29 24 00    	call   QWORD PTR [rip+0x24291e]        # 249ab0 <_GLOBAL_OFFSET_TABLE_+0x158>
    7192:	0f 0b                	ud2    
    7194:	66 2e 0f 1f 84 00 00 	nop    WORD PTR cs:[rax+rax*1+0x0]
    719b:	00 00 00 
    719e:	66 90                	xchg   ax,ax

00000000000071a0 <_ZN4core5slice5index24slice_end_index_len_fail17h284a21aa4a1b1d67E>:
    71a0:	48 83 ec 68          	sub    rsp,0x68
    71a4:	48 89 7c 24 08       	mov    QWORD PTR [rsp+0x8],rdi
    71a9:	48 89 74 24 10       	mov    QWORD PTR [rsp+0x10],rsi
    71ae:	48 8d 44 24 08       	lea    rax,[rsp+0x8]
    71b3:	48 89 44 24 18       	mov    QWORD PTR [rsp+0x18],rax
    71b8:	48 8d 05 11 32 03 00 	lea    rax,[rip+0x33211]        # 3a3d0 <_ZN4core3fmt3num3imp52_$LT$impl$u20$core..fmt..Display$u20$for$u20$u64$GT$3fmt17hd77ccdd75b607a51E>
    71bf:	48 89 44 24 20       	mov    QWORD PTR [rsp+0x20],rax
    71c4:	48 8d 4c 24 10       	lea    rcx,[rsp+0x10]
    71c9:	48 89 4c 24 28       	mov    QWORD PTR [rsp+0x28],rcx
    71ce:	48 89 44 24 30       	mov    QWORD PTR [rsp+0x30],rax
    71d3:	48 8d 05 be 21 24 00 	lea    rax,[rip+0x2421be]        # 249398 <_ZN6object3elf12ELF_NOTE_GNU17h7e493dca1d7c0067E+0x968>
    71da:	48 89 44 24 38       	mov    QWORD PTR [rsp+0x38],rax
    71df:	48 c7 44 24 40 02 00 	mov    QWORD PTR [rsp+0x40],0x2
    71e6:	00 00 
    71e8:	48 c7 44 24 48 00 00 	mov    QWORD PTR [rsp+0x48],0x0
    71ef:	00 00 
    71f1:	48 8d 44 24 18       	lea    rax,[rsp+0x18]
    71f6:	48 89 44 24 58       	mov    QWORD PTR [rsp+0x58],rax
    71fb:	48 c7 44 24 60 02 00 	mov    QWORD PTR [rsp+0x60],0x2
    7202:	00 00 
    7204:	48 8d 7c 24 38       	lea    rdi,[rsp+0x38]
    7209:	48 89 d6             	mov    rsi,rdx
    720c:	ff 15 9e 28 24 00    	call   QWORD PTR [rip+0x24289e]        # 249ab0 <_GLOBAL_OFFSET_TABLE_+0x158>
    7212:	0f 0b                	ud2    
    7214:	66 2e 0f 1f 84 00 00 	nop    WORD PTR cs:[rax+rax*1+0x0]
    721b:	00 00 00 
    721e:	66 90                	xchg   ax,ax

0000000000007220 <_ZN4core5slice5index22slice_index_order_fail17h9417f12051fd779fE>:
    7220:	48 83 ec 68          	sub    rsp,0x68
    7224:	48 89 7c 24 08       	mov    QWORD PTR [rsp+0x8],rdi
    7229:	48 89 74 24 10       	mov    QWORD PTR [rsp+0x10],rsi
    722e:	48 8d 44 24 08       	lea    rax,[rsp+0x8]
    7233:	48 89 44 24 18       	mov    QWORD PTR [rsp+0x18],rax
    7238:	48 8d 05 91 31 03 00 	lea    rax,[rip+0x33191]        # 3a3d0 <_ZN4core3fmt3num3imp52_$LT$impl$u20$core..fmt..Display$u20$for$u20$u64$GT$3fmt17hd77ccdd75b607a51E>
    723f:	48 89 44 24 20       	mov    QWORD PTR [rsp+0x20],rax
    7244:	48 8d 4c 24 10       	lea    rcx,[rsp+0x10]
    7249:	48 89 4c 24 28       	mov    QWORD PTR [rsp+0x28],rcx
    724e:	48 89 44 24 30       	mov    QWORD PTR [rsp+0x30],rax
    7253:	48 8d 05 5e 21 24 00 	lea    rax,[rip+0x24215e]        # 2493b8 <_ZN6object3elf12ELF_NOTE_GNU17h7e493dca1d7c0067E+0x988>
    725a:	48 89 44 24 38       	mov    QWORD PTR [rsp+0x38],rax
    725f:	48 c7 44 24 40 02 00 	mov    QWORD PTR [rsp+0x40],0x2
    7266:	00 00 
    7268:	48 c7 44 24 48 00 00 	mov    QWORD PTR [rsp+0x48],0x0
    726f:	00 00 
    7271:	48 8d 44 24 18       	lea    rax,[rsp+0x18]
    7276:	48 89 44 24 58       	mov    QWORD PTR [rsp+0x58],rax
    727b:	48 c7 44 24 60 02 00 	mov    QWORD PTR [rsp+0x60],0x2
    7282:	00 00 
    7284:	48 8d 7c 24 38       	lea    rdi,[rsp+0x38]
    7289:	48 89 d6             	mov    rsi,rdx
    728c:	ff 15 1e 28 24 00    	call   QWORD PTR [rip+0x24281e]        # 249ab0 <_GLOBAL_OFFSET_TABLE_+0x158>
    7292:	0f 0b                	ud2    
    7294:	66 2e 0f 1f 84 00 00 	nop    WORD PTR cs:[rax+rax*1+0x0]
    729b:	00 00 00 
    729e:	66 90                	xchg   ax,ax

00000000000072a0 <_ZN4core5slice29_$LT$impl$u20$$u5b$T$u5d$$GT$15copy_from_slice17len_mismatch_fail17h36bc823f9790e04cE>:
    72a0:	48 83 ec 68          	sub    rsp,0x68
    72a4:	48 89 7c 24 08       	mov    QWORD PTR [rsp+0x8],rdi
    72a9:	48 89 74 24 10       	mov    QWORD PTR [rsp+0x10],rsi
    72ae:	48 8d 44 24 10       	lea    rax,[rsp+0x10]
    72b3:	48 89 44 24 18       	mov    QWORD PTR [rsp+0x18],rax
    72b8:	48 8d 05 11 31 03 00 	lea    rax,[rip+0x33111]        # 3a3d0 <_ZN4core3fmt3num3imp52_$LT$impl$u20$core..fmt..Display$u20$for$u20$u64$GT$3fmt17hd77ccdd75b607a51E>
    72bf:	48 89 44 24 20       	mov    QWORD PTR [rsp+0x20],rax
    72c4:	48 8d 4c 24 08       	lea    rcx,[rsp+0x8]
    72c9:	48 89 4c 24 28       	mov    QWORD PTR [rsp+0x28],rcx
    72ce:	48 89 44 24 30       	mov    QWORD PTR [rsp+0x30],rax
    72d3:	48 8d 05 fe 20 24 00 	lea    rax,[rip+0x2420fe]        # 2493d8 <_ZN6object3elf12ELF_NOTE_GNU17h7e493dca1d7c0067E+0x9a8>
    72da:	48 89 44 24 38       	mov    QWORD PTR [rsp+0x38],rax
    72df:	48 c7 44 24 40 03 00 	mov    QWORD PTR [rsp+0x40],0x3
    72e6:	00 00 
    72e8:	48 c7 44 24 48 00 00 	mov    QWORD PTR [rsp+0x48],0x0
    72ef:	00 00 
    72f1:	48 8d 44 24 18       	lea    rax,[rsp+0x18]
    72f6:	48 89 44 24 58       	mov    QWORD PTR [rsp+0x58],rax
    72fb:	48 c7 44 24 60 02 00 	mov    QWORD PTR [rsp+0x60],0x2
    7302:	00 00 
    7304:	48 8d 7c 24 38       	lea    rdi,[rsp+0x38]
    7309:	48 89 d6             	mov    rsi,rdx
    730c:	ff 15 9e 27 24 00    	call   QWORD PTR [rip+0x24279e]        # 249ab0 <_GLOBAL_OFFSET_TABLE_+0x158>
    7312:	0f 0b                	ud2    
    7314:	66 2e 0f 1f 84 00 00 	nop    WORD PTR cs:[rax+rax*1+0x0]
    731b:	00 00 00 
    731e:	66 90                	xchg   ax,ax

0000000000007320 <_ZN4core3str6traits23str_index_overflow_fail17hc464a7d0966f6aeaE>:
    7320:	50                   	push   rax
    7321:	48 89 fa             	mov    rdx,rdi
    7324:	48 8d 3d 4e 81 03 00 	lea    rdi,[rip+0x3814e]        # 3f479 <_ZN4core7unicode12unicode_data11white_space17SHORT_OFFSET_RUNS17h561219f27703dfddE+0x599>
    732b:	be 2a 00 00 00       	mov    esi,0x2a
    7330:	ff 15 72 2a 24 00    	call   QWORD PTR [rip+0x242a72]        # 249da8 <_GLOBAL_OFFSET_TABLE_+0x450>
    7336:	0f 0b                	ud2    
    7338:	0f 1f 84 00 00 00 00 	nop    DWORD PTR [rax+rax*1+0x0]
    733f:	00 

0000000000007340 <_ZN4core3str16slice_error_fail17h454fcfb281cf9cd8E>:
    7340:	48 81 ec d8 00 00 00 	sub    rsp,0xd8
    7347:	48 89 94 24 c8 00 00 	mov    QWORD PTR [rsp+0xc8],rdx
    734e:	00 
    734f:	48 89 8c 24 d0 00 00 	mov    QWORD PTR [rsp+0xd0],rcx
    7356:	00 
    7357:	48 81 fe 01 01 00 00 	cmp    rsi,0x101
    735e:	73 2b                	jae    738b <_ZN4core3str16slice_error_fail17h454fcfb281cf9cd8E+0x4b>
    7360:	48 89 7c 24 10       	mov    QWORD PTR [rsp+0x10],rdi
    7365:	48 89 74 24 18       	mov    QWORD PTR [rsp+0x18],rsi
    736a:	48 8d 05 1f 7e 03 00 	lea    rax,[rip+0x37e1f]        # 3f190 <_ZN4core7unicode12unicode_data11white_space17SHORT_OFFSET_RUNS17h561219f27703dfddE+0x2b0>
    7371:	48 89 44 24 20       	mov    QWORD PTR [rsp+0x20],rax
    7376:	31 c0                	xor    eax,eax
    7378:	48 89 44 24 28       	mov    QWORD PTR [rsp+0x28],rax
    737d:	48 39 f2             	cmp    rdx,rsi
    7380:	0f 86 9b 00 00 00    	jbe    7421 <_ZN4core3str16slice_error_fail17h454fcfb281cf9cd8E+0xe1>
    7386:	e9 48 01 00 00       	jmp    74d3 <_ZN4core3str16slice_error_fail17h454fcfb281cf9cd8E+0x193>
    738b:	b8 00 01 00 00       	mov    eax,0x100
    7390:	45 31 c9             	xor    r9d,r9d
    7393:	66 2e 0f 1f 84 00 00 	nop    WORD PTR cs:[rax+rax*1+0x0]
    739a:	00 00 00 
    739d:	0f 1f 00             	nop    DWORD PTR [rax]
    73a0:	80 3c 07 bf          	cmp    BYTE PTR [rdi+rax*1],0xbf
    73a4:	7f 2c                	jg     73d2 <_ZN4core3str16slice_error_fail17h454fcfb281cf9cd8E+0x92>
    73a6:	80 7c 07 ff bf       	cmp    BYTE PTR [rdi+rax*1-0x1],0xbf
    73ab:	7f 16                	jg     73c3 <_ZN4core3str16slice_error_fail17h454fcfb281cf9cd8E+0x83>
    73ad:	80 7c 07 fe bf       	cmp    BYTE PTR [rdi+rax*1-0x2],0xbf
    73b2:	7f 1a                	jg     73ce <_ZN4core3str16slice_error_fail17h454fcfb281cf9cd8E+0x8e>
    73b4:	80 7c 07 fd bf       	cmp    BYTE PTR [rdi+rax*1-0x3],0xbf
    73b9:	7f 2b                	jg     73e6 <_ZN4core3str16slice_error_fail17h454fcfb281cf9cd8E+0xa6>
    73bb:	48 83 c0 fc          	add    rax,0xfffffffffffffffc
    73bf:	75 df                	jne    73a0 <_ZN4core3str16slice_error_fail17h454fcfb281cf9cd8E+0x60>
    73c1:	eb 35                	jmp    73f8 <_ZN4core3str16slice_error_fail17h454fcfb281cf9cd8E+0xb8>
    73c3:	48 83 c0 ff          	add    rax,0xffffffffffffffff
    73c7:	48 39 f0             	cmp    rax,rsi
    73ca:	72 0b                	jb     73d7 <_ZN4core3str16slice_error_fail17h454fcfb281cf9cd8E+0x97>
    73cc:	eb 21                	jmp    73ef <_ZN4core3str16slice_error_fail17h454fcfb281cf9cd8E+0xaf>
    73ce:	48 83 c0 fe          	add    rax,0xfffffffffffffffe
    73d2:	48 39 f0             	cmp    rax,rsi
    73d5:	73 18                	jae    73ef <_ZN4core3str16slice_error_fail17h454fcfb281cf9cd8E+0xaf>
    73d7:	80 3c 07 bf          	cmp    BYTE PTR [rdi+rax*1],0xbf
    73db:	0f 8e 89 01 00 00    	jle    756a <_ZN4core3str16slice_error_fail17h454fcfb281cf9cd8E+0x22a>
    73e1:	49 89 c1             	mov    r9,rax
    73e4:	eb 12                	jmp    73f8 <_ZN4core3str16slice_error_fail17h454fcfb281cf9cd8E+0xb8>
    73e6:	48 83 c0 fd          	add    rax,0xfffffffffffffffd
    73ea:	48 39 f0             	cmp    rax,rsi
    73ed:	72 e8                	jb     73d7 <_ZN4core3str16slice_error_fail17h454fcfb281cf9cd8E+0x97>
    73ef:	49 89 f1             	mov    r9,rsi
    73f2:	0f 85 72 01 00 00    	jne    756a <_ZN4core3str16slice_error_fail17h454fcfb281cf9cd8E+0x22a>
    73f8:	48 89 7c 24 10       	mov    QWORD PTR [rsp+0x10],rdi
    73fd:	4c 89 4c 24 18       	mov    QWORD PTR [rsp+0x18],r9
    7402:	48 8d 05 1c 82 03 00 	lea    rax,[rip+0x3821c]        # 3f625 <_ZN4core3str11validations15UTF8_CHAR_WIDTH17h0a2a02da10a76456E+0x15f>
    7409:	48 89 44 24 20       	mov    QWORD PTR [rsp+0x20],rax
    740e:	b8 05 00 00 00       	mov    eax,0x5
    7413:	48 89 44 24 28       	mov    QWORD PTR [rsp+0x28],rax
    7418:	48 39 f2             	cmp    rdx,rsi
    741b:	0f 87 b2 00 00 00    	ja     74d3 <_ZN4core3str16slice_error_fail17h454fcfb281cf9cd8E+0x193>
    7421:	48 39 f1             	cmp    rcx,rsi
    7424:	0f 87 a9 00 00 00    	ja     74d3 <_ZN4core3str16slice_error_fail17h454fcfb281cf9cd8E+0x193>
    742a:	48 39 ca             	cmp    rdx,rcx
    742d:	0f 86 4b 01 00 00    	jbe    757e <_ZN4core3str16slice_error_fail17h454fcfb281cf9cd8E+0x23e>
    7433:	48 8d 84 24 c8 00 00 	lea    rax,[rsp+0xc8]
    743a:	00 
    743b:	48 89 44 24 68       	mov    QWORD PTR [rsp+0x68],rax
    7440:	48 8d 05 89 2f 03 00 	lea    rax,[rip+0x32f89]        # 3a3d0 <_ZN4core3fmt3num3imp52_$LT$impl$u20$core..fmt..Display$u20$for$u20$u64$GT$3fmt17hd77ccdd75b607a51E>
    7447:	48 89 44 24 70       	mov    QWORD PTR [rsp+0x70],rax
    744c:	48 8d 8c 24 d0 00 00 	lea    rcx,[rsp+0xd0]
    7453:	00 
    7454:	48 89 4c 24 78       	mov    QWORD PTR [rsp+0x78],rcx
    7459:	48 89 84 24 80 00 00 	mov    QWORD PTR [rsp+0x80],rax
    7460:	00 
    7461:	48 8d 44 24 10       	lea    rax,[rsp+0x10]
    7466:	48 89 84 24 88 00 00 	mov    QWORD PTR [rsp+0x88],rax
    746d:	00 
    746e:	48 8d 05 eb 33 03 00 	lea    rax,[rip+0x333eb]        # 3a860 <_ZN44_$LT$$RF$T$u20$as$u20$core..fmt..Display$GT$3fmt17h0f67468de248b5d6E>
    7475:	48 89 84 24 90 00 00 	mov    QWORD PTR [rsp+0x90],rax
    747c:	00 
    747d:	48 8d 4c 24 20       	lea    rcx,[rsp+0x20]
    7482:	48 89 8c 24 98 00 00 	mov    QWORD PTR [rsp+0x98],rcx
    7489:	00 
    748a:	48 89 84 24 a0 00 00 	mov    QWORD PTR [rsp+0xa0],rax
    7491:	00 
    7492:	48 8d 05 07 21 24 00 	lea    rax,[rip+0x242107]        # 2495a0 <_ZN6object3elf12ELF_NOTE_GNU17h7e493dca1d7c0067E+0xb70>
    7499:	48 89 44 24 38       	mov    QWORD PTR [rsp+0x38],rax
    749e:	48 c7 44 24 40 04 00 	mov    QWORD PTR [rsp+0x40],0x4
    74a5:	00 00 
    74a7:	48 c7 44 24 48 00 00 	mov    QWORD PTR [rsp+0x48],0x0
    74ae:	00 00 
    74b0:	48 8d 44 24 68       	lea    rax,[rsp+0x68]
    74b5:	48 89 44 24 58       	mov    QWORD PTR [rsp+0x58],rax
    74ba:	48 c7 44 24 60 04 00 	mov    QWORD PTR [rsp+0x60],0x4
    74c1:	00 00 
    74c3:	48 8d 7c 24 38       	lea    rdi,[rsp+0x38]
    74c8:	4c 89 c6             	mov    rsi,r8
    74cb:	ff 15 df 25 24 00    	call   QWORD PTR [rip+0x2425df]        # 249ab0 <_GLOBAL_OFFSET_TABLE_+0x158>
    74d1:	0f 0b                	ud2    
    74d3:	48 39 f2             	cmp    rdx,rsi
    74d6:	48 0f 47 ca          	cmova  rcx,rdx
    74da:	48 89 8c 24 b8 00 00 	mov    QWORD PTR [rsp+0xb8],rcx
    74e1:	00 
    74e2:	48 8d 84 24 b8 00 00 	lea    rax,[rsp+0xb8]
    74e9:	00 
    74ea:	48 89 44 24 68       	mov    QWORD PTR [rsp+0x68],rax
    74ef:	48 8d 05 da 2e 03 00 	lea    rax,[rip+0x32eda]        # 3a3d0 <_ZN4core3fmt3num3imp52_$LT$impl$u20$core..fmt..Display$u20$for$u20$u64$GT$3fmt17hd77ccdd75b607a51E>
    74f6:	48 89 44 24 70       	mov    QWORD PTR [rsp+0x70],rax
    74fb:	48 8d 44 24 10       	lea    rax,[rsp+0x10]
    7500:	48 89 44 24 78       	mov    QWORD PTR [rsp+0x78],rax
    7505:	48 8d 05 54 33 03 00 	lea    rax,[rip+0x33354]        # 3a860 <_ZN44_$LT$$RF$T$u20$as$u20$core..fmt..Display$GT$3fmt17h0f67468de248b5d6E>
    750c:	48 89 84 24 80 00 00 	mov    QWORD PTR [rsp+0x80],rax
    7513:	00 
    7514:	48 8d 4c 24 20       	lea    rcx,[rsp+0x20]
    7519:	48 89 8c 24 88 00 00 	mov    QWORD PTR [rsp+0x88],rcx
    7520:	00 
    7521:	48 89 84 24 90 00 00 	mov    QWORD PTR [rsp+0x90],rax
    7528:	00 
    7529:	48 8d 05 40 20 24 00 	lea    rax,[rip+0x242040]        # 249570 <_ZN6object3elf12ELF_NOTE_GNU17h7e493dca1d7c0067E+0xb40>
    7530:	48 89 44 24 38       	mov    QWORD PTR [rsp+0x38],rax
    7535:	48 c7 44 24 40 03 00 	mov    QWORD PTR [rsp+0x40],0x3
    753c:	00 00 
    753e:	48 c7 44 24 48 00 00 	mov    QWORD PTR [rsp+0x48],0x0
    7545:	00 00 
    7547:	48 8d 44 24 68       	lea    rax,[rsp+0x68]
    754c:	48 89 44 24 58       	mov    QWORD PTR [rsp+0x58],rax
    7551:	48 c7 44 24 60 03 00 	mov    QWORD PTR [rsp+0x60],0x3
    7558:	00 00 
    755a:	48 8d 7c 24 38       	lea    rdi,[rsp+0x38]
    755f:	4c 89 c6             	mov    rsi,r8
    7562:	ff 15 48 25 24 00    	call   QWORD PTR [rip+0x242548]        # 249ab0 <_GLOBAL_OFFSET_TABLE_+0x158>
    7568:	0f 0b                	ud2    
    756a:	4c 8d 05 97 1e 24 00 	lea    r8,[rip+0x241e97]        # 249408 <_ZN6object3elf12ELF_NOTE_GNU17h7e493dca1d7c0067E+0x9d8>
    7571:	31 d2                	xor    edx,edx
    7573:	48 89 c1             	mov    rcx,rax
    7576:	ff 15 5c 29 24 00    	call   QWORD PTR [rip+0x24295c]        # 249ed8 <_GLOBAL_OFFSET_TABLE_+0x580>
    757c:	0f 0b                	ud2    
    757e:	48 85 d2             	test   rdx,rdx
    7581:	74 1a                	je     759d <_ZN4core3str16slice_error_fail17h454fcfb281cf9cd8E+0x25d>
    7583:	48 39 f2             	cmp    rdx,rsi
    7586:	73 10                	jae    7598 <_ZN4core3str16slice_error_fail17h454fcfb281cf9cd8E+0x258>
    7588:	80 3c 17 bf          	cmp    BYTE PTR [rdi+rdx*1],0xbf
    758c:	7f 0f                	jg     759d <_ZN4core3str16slice_error_fail17h454fcfb281cf9cd8E+0x25d>
    758e:	48 89 54 24 30       	mov    QWORD PTR [rsp+0x30],rdx
    7593:	48 89 d1             	mov    rcx,rdx
    7596:	eb 43                	jmp    75db <_ZN4core3str16slice_error_fail17h454fcfb281cf9cd8E+0x29b>
    7598:	48 39 d6             	cmp    rsi,rdx
    759b:	75 f1                	jne    758e <_ZN4core3str16slice_error_fail17h454fcfb281cf9cd8E+0x24e>
    759d:	48 89 4c 24 30       	mov    QWORD PTR [rsp+0x30],rcx
    75a2:	48 85 c9             	test   rcx,rcx
    75a5:	75 34                	jne    75db <_ZN4core3str16slice_error_fail17h454fcfb281cf9cd8E+0x29b>
    75a7:	31 c9                	xor    ecx,ecx
    75a9:	48 39 f1             	cmp    rcx,rsi
    75ac:	75 4c                	jne    75fa <_ZN4core3str16slice_error_fail17h454fcfb281cf9cd8E+0x2ba>
    75ae:	48 8d 3d 42 7c 03 00 	lea    rdi,[rip+0x37c42]        # 3f1f7 <_ZN4core7unicode12unicode_data11white_space17SHORT_OFFSET_RUNS17h561219f27703dfddE+0x317>
    75b5:	be 2b 00 00 00       	mov    esi,0x2b
    75ba:	4c 89 c2             	mov    rdx,r8
    75bd:	ff 15 e5 27 24 00    	call   QWORD PTR [rip+0x2427e5]        # 249da8 <_GLOBAL_OFFSET_TABLE_+0x450>
    75c3:	0f 0b                	ud2    
    75c5:	66 2e 0f 1f 84 00 00 	nop    WORD PTR cs:[rax+rax*1+0x0]
    75cc:	00 00 00 
    75cf:	90                   	nop
    75d0:	48 39 ce             	cmp    rsi,rcx
    75d3:	74 d9                	je     75ae <_ZN4core3str16slice_error_fail17h454fcfb281cf9cd8E+0x26e>
    75d5:	48 83 c1 ff          	add    rcx,0xffffffffffffffff
    75d9:	74 cc                	je     75a7 <_ZN4core3str16slice_error_fail17h454fcfb281cf9cd8E+0x267>
    75db:	48 39 f1             	cmp    rcx,rsi
    75de:	73 f0                	jae    75d0 <_ZN4core3str16slice_error_fail17h454fcfb281cf9cd8E+0x290>
    75e0:	80 3c 0f c0          	cmp    BYTE PTR [rdi+rcx*1],0xc0
    75e4:	7c ef                	jl     75d5 <_ZN4core3str16slice_error_fail17h454fcfb281cf9cd8E+0x295>
    75e6:	48 39 f1             	cmp    rcx,rsi
    75e9:	0f 83 a0 00 00 00    	jae    768f <_ZN4core3str16slice_error_fail17h454fcfb281cf9cd8E+0x34f>
    75ef:	80 3c 0f bf          	cmp    BYTE PTR [rdi+rcx*1],0xbf
    75f3:	7f b4                	jg     75a9 <_ZN4core3str16slice_error_fail17h454fcfb281cf9cd8E+0x269>
    75f5:	e9 9e 00 00 00       	jmp    7698 <_ZN4core3str16slice_error_fail17h454fcfb281cf9cd8E+0x358>
    75fa:	48 8d 04 0f          	lea    rax,[rdi+rcx*1]
    75fe:	0f b6 10             	movzx  edx,BYTE PTR [rax]
    7601:	84 d2                	test   dl,dl
    7603:	78 0e                	js     7613 <_ZN4core3str16slice_error_fail17h454fcfb281cf9cd8E+0x2d3>
    7605:	89 54 24 0c          	mov    DWORD PTR [rsp+0xc],edx
    7609:	b8 01 00 00 00       	mov    eax,0x1
    760e:	e9 c5 00 00 00       	jmp    76d8 <_ZN4core3str16slice_error_fail17h454fcfb281cf9cd8E+0x398>
    7613:	48 01 f7             	add    rdi,rsi
    7616:	4c 8d 50 01          	lea    r10,[rax+0x1]
    761a:	31 f6                	xor    esi,esi
    761c:	49 89 f9             	mov    r9,rdi
    761f:	49 39 fa             	cmp    r10,rdi
    7622:	74 0e                	je     7632 <_ZN4core3str16slice_error_fail17h454fcfb281cf9cd8E+0x2f2>
    7624:	0f b6 70 01          	movzx  esi,BYTE PTR [rax+0x1]
    7628:	48 83 c0 02          	add    rax,0x2
    762c:	83 e6 3f             	and    esi,0x3f
    762f:	49 89 c1             	mov    r9,rax
    7632:	89 d0                	mov    eax,edx
    7634:	83 e0 1f             	and    eax,0x1f
    7637:	80 fa df             	cmp    dl,0xdf
    763a:	76 4e                	jbe    768a <_ZN4core3str16slice_error_fail17h454fcfb281cf9cd8E+0x34a>
    763c:	45 31 db             	xor    r11d,r11d
    763f:	49 89 fa             	mov    r10,rdi
    7642:	49 39 f9             	cmp    r9,rdi
    7645:	74 0f                	je     7656 <_ZN4core3str16slice_error_fail17h454fcfb281cf9cd8E+0x316>
    7647:	45 0f b6 19          	movzx  r11d,BYTE PTR [r9]
    764b:	49 83 c1 01          	add    r9,0x1
    764f:	41 83 e3 3f          	and    r11d,0x3f
    7653:	4d 89 ca             	mov    r10,r9
    7656:	c1 e6 06             	shl    esi,0x6
    7659:	44 09 de             	or     esi,r11d
    765c:	80 fa f0             	cmp    dl,0xf0
    765f:	72 45                	jb     76a6 <_ZN4core3str16slice_error_fail17h454fcfb281cf9cd8E+0x366>
    7661:	31 d2                	xor    edx,edx
    7663:	49 39 fa             	cmp    r10,rdi
    7666:	74 07                	je     766f <_ZN4core3str16slice_error_fail17h454fcfb281cf9cd8E+0x32f>
    7668:	41 0f b6 12          	movzx  edx,BYTE PTR [r10]
    766c:	83 e2 3f             	and    edx,0x3f
    766f:	83 e0 07             	and    eax,0x7
    7672:	c1 e0 12             	shl    eax,0x12
    7675:	c1 e6 06             	shl    esi,0x6
    7678:	09 c6                	or     esi,eax
    767a:	09 d6                	or     esi,edx
    767c:	81 fe 00 00 11 00    	cmp    esi,0x110000
    7682:	0f 84 26 ff ff ff    	je     75ae <_ZN4core3str16slice_error_fail17h454fcfb281cf9cd8E+0x26e>
    7688:	eb 21                	jmp    76ab <_ZN4core3str16slice_error_fail17h454fcfb281cf9cd8E+0x36b>
    768a:	c1 e0 06             	shl    eax,0x6
    768d:	eb 1a                	jmp    76a9 <_ZN4core3str16slice_error_fail17h454fcfb281cf9cd8E+0x369>
    768f:	48 39 ce             	cmp    rsi,rcx
    7692:	0f 84 16 ff ff ff    	je     75ae <_ZN4core3str16slice_error_fail17h454fcfb281cf9cd8E+0x26e>
    7698:	48 89 ca             	mov    rdx,rcx
    769b:	48 89 f1             	mov    rcx,rsi
    769e:	ff 15 34 28 24 00    	call   QWORD PTR [rip+0x242834]        # 249ed8 <_GLOBAL_OFFSET_TABLE_+0x580>
    76a4:	0f 0b                	ud2    
    76a6:	c1 e0 0c             	shl    eax,0xc
    76a9:	09 c6                	or     esi,eax
    76ab:	89 74 24 0c          	mov    DWORD PTR [rsp+0xc],esi
    76af:	b8 01 00 00 00       	mov    eax,0x1
    76b4:	81 fe 80 00 00 00    	cmp    esi,0x80
    76ba:	72 1c                	jb     76d8 <_ZN4core3str16slice_error_fail17h454fcfb281cf9cd8E+0x398>
    76bc:	b8 02 00 00 00       	mov    eax,0x2
    76c1:	81 fe 00 08 00 00    	cmp    esi,0x800
    76c7:	72 0f                	jb     76d8 <_ZN4core3str16slice_error_fail17h454fcfb281cf9cd8E+0x398>
    76c9:	81 fe 00 00 01 00    	cmp    esi,0x10000
    76cf:	b8 04 00 00 00       	mov    eax,0x4
    76d4:	48 83 d8 00          	sbb    rax,0x0
    76d8:	48 01 c8             	add    rax,rcx
    76db:	48 89 8c 24 b8 00 00 	mov    QWORD PTR [rsp+0xb8],rcx
    76e2:	00 
    76e3:	48 89 84 24 c0 00 00 	mov    QWORD PTR [rsp+0xc0],rax
    76ea:	00 
    76eb:	48 8d 44 24 30       	lea    rax,[rsp+0x30]
    76f0:	48 89 44 24 68       	mov    QWORD PTR [rsp+0x68],rax
    76f5:	48 8d 05 d4 2c 03 00 	lea    rax,[rip+0x32cd4]        # 3a3d0 <_ZN4core3fmt3num3imp52_$LT$impl$u20$core..fmt..Display$u20$for$u20$u64$GT$3fmt17hd77ccdd75b607a51E>
    76fc:	48 89 44 24 70       	mov    QWORD PTR [rsp+0x70],rax
    7701:	48 8d 44 24 0c       	lea    rax,[rsp+0xc]
    7706:	48 89 44 24 78       	mov    QWORD PTR [rsp+0x78],rax
    770b:	48 8d 05 9e 0d 03 00 	lea    rax,[rip+0x30d9e]        # 384b0 <_ZN41_$LT$char$u20$as$u20$core..fmt..Debug$GT$3fmt17ha63d7930dbcf856eE>
    7712:	48 89 84 24 80 00 00 	mov    QWORD PTR [rsp+0x80],rax
    7719:	00 
    771a:	48 8d 84 24 b8 00 00 	lea    rax,[rsp+0xb8]
    7721:	00 
    7722:	48 89 84 24 88 00 00 	mov    QWORD PTR [rsp+0x88],rax
    7729:	00 
    772a:	48 8d 05 0f eb 02 00 	lea    rax,[rip+0x2eb0f]        # 36240 <_ZN71_$LT$core..ops..range..Range$LT$Idx$GT$$u20$as$u20$core..fmt..Debug$GT$3fmt17hb4e23414e55e1af6E>
    7731:	48 89 84 24 90 00 00 	mov    QWORD PTR [rsp+0x90],rax
    7738:	00 
    7739:	48 8d 44 24 10       	lea    rax,[rsp+0x10]
    773e:	48 89 84 24 98 00 00 	mov    QWORD PTR [rsp+0x98],rax
    7745:	00 
    7746:	48 8d 05 13 31 03 00 	lea    rax,[rip+0x33113]        # 3a860 <_ZN44_$LT$$RF$T$u20$as$u20$core..fmt..Display$GT$3fmt17h0f67468de248b5d6E>
    774d:	48 89 84 24 a0 00 00 	mov    QWORD PTR [rsp+0xa0],rax
    7754:	00 
    7755:	48 8d 4c 24 20       	lea    rcx,[rsp+0x20]
    775a:	48 89 8c 24 a8 00 00 	mov    QWORD PTR [rsp+0xa8],rcx
    7761:	00 
    7762:	48 89 84 24 b0 00 00 	mov    QWORD PTR [rsp+0xb0],rax
    7769:	00 
    776a:	48 8d 05 6f 1e 24 00 	lea    rax,[rip+0x241e6f]        # 2495e0 <_ZN6object3elf12ELF_NOTE_GNU17h7e493dca1d7c0067E+0xbb0>
    7771:	48 89 44 24 38       	mov    QWORD PTR [rsp+0x38],rax
    7776:	48 c7 44 24 40 05 00 	mov    QWORD PTR [rsp+0x40],0x5
    777d:	00 00 
    777f:	48 c7 44 24 48 00 00 	mov    QWORD PTR [rsp+0x48],0x0
    7786:	00 00 
    7788:	48 8d 44 24 68       	lea    rax,[rsp+0x68]
    778d:	48 89 44 24 58       	mov    QWORD PTR [rsp+0x58],rax
    7792:	48 c7 44 24 60 05 00 	mov    QWORD PTR [rsp+0x60],0x5
    7799:	00 00 
    779b:	48 8d 7c 24 38       	lea    rdi,[rsp+0x38]
    77a0:	4c 89 c6             	mov    rsi,r8
    77a3:	ff 15 07 23 24 00    	call   QWORD PTR [rip+0x242307]        # 249ab0 <_GLOBAL_OFFSET_TABLE_+0x158>
    77a9:	0f 0b                	ud2    
    77ab:	0f 1f 44 00 00       	nop    DWORD PTR [rax+rax*1+0x0]

00000000000077b0 <_start>:
    77b0:	31 ed                	xor    ebp,ebp
    77b2:	49 89 d1             	mov    r9,rdx
    77b5:	5e                   	pop    rsi
    77b6:	48 89 e2             	mov    rdx,rsp
    77b9:	48 83 e4 f0          	and    rsp,0xfffffffffffffff0
    77bd:	50                   	push   rax
    77be:	54                   	push   rsp
    77bf:	4c 8d 05 8a 35 03 00 	lea    r8,[rip+0x3358a]        # 3ad50 <__libc_csu_fini>
    77c6:	48 8d 0d 13 35 03 00 	lea    rcx,[rip+0x33513]        # 3ace0 <__libc_csu_init>
    77cd:	48 8d 3d 5c 05 00 00 	lea    rdi,[rip+0x55c]        # 7d30 <main>
    77d4:	ff 15 16 23 24 00    	call   QWORD PTR [rip+0x242316]        # 249af0 <__libc_start_main@GLIBC_2.2.5>
    77da:	f4                   	hlt    
    77db:	0f 1f 44 00 00       	nop    DWORD PTR [rax+rax*1+0x0]

00000000000077e0 <deregister_tm_clones>:
    77e0:	48 8d 3d 69 28 24 00 	lea    rdi,[rip+0x242869]        # 24a050 <__TMC_END__>
    77e7:	55                   	push   rbp
    77e8:	48 8d 05 61 28 24 00 	lea    rax,[rip+0x242861]        # 24a050 <__TMC_END__>
    77ef:	48 39 f8             	cmp    rax,rdi
    77f2:	48 89 e5             	mov    rbp,rsp
    77f5:	74 19                	je     7810 <deregister_tm_clones+0x30>
    77f7:	48 8b 05 b2 23 24 00 	mov    rax,QWORD PTR [rip+0x2423b2]        # 249bb0 <_ITM_deregisterTMCloneTable>
    77fe:	48 85 c0             	test   rax,rax
    7801:	74 0d                	je     7810 <deregister_tm_clones+0x30>
    7803:	5d                   	pop    rbp
    7804:	ff e0                	jmp    rax
    7806:	66 2e 0f 1f 84 00 00 	nop    WORD PTR cs:[rax+rax*1+0x0]
    780d:	00 00 00 
    7810:	5d                   	pop    rbp
    7811:	c3                   	ret    
    7812:	0f 1f 40 00          	nop    DWORD PTR [rax+0x0]
    7816:	66 2e 0f 1f 84 00 00 	nop    WORD PTR cs:[rax+rax*1+0x0]
    781d:	00 00 00 

0000000000007820 <register_tm_clones>:
    7820:	48 8d 3d 29 28 24 00 	lea    rdi,[rip+0x242829]        # 24a050 <__TMC_END__>
    7827:	48 8d 35 22 28 24 00 	lea    rsi,[rip+0x242822]        # 24a050 <__TMC_END__>
    782e:	55                   	push   rbp
    782f:	48 29 fe             	sub    rsi,rdi
    7832:	48 89 e5             	mov    rbp,rsp
    7835:	48 c1 fe 03          	sar    rsi,0x3
    7839:	48 89 f0             	mov    rax,rsi
    783c:	48 c1 e8 3f          	shr    rax,0x3f
    7840:	48 01 c6             	add    rsi,rax
    7843:	48 d1 fe             	sar    rsi,1
    7846:	74 18                	je     7860 <register_tm_clones+0x40>
    7848:	48 8b 05 b1 23 24 00 	mov    rax,QWORD PTR [rip+0x2423b1]        # 249c00 <_ITM_registerTMCloneTable>
    784f:	48 85 c0             	test   rax,rax
    7852:	74 0c                	je     7860 <register_tm_clones+0x40>
    7854:	5d                   	pop    rbp
    7855:	ff e0                	jmp    rax
    7857:	66 0f 1f 84 00 00 00 	nop    WORD PTR [rax+rax*1+0x0]
    785e:	00 00 
    7860:	5d                   	pop    rbp
    7861:	c3                   	ret    
    7862:	0f 1f 40 00          	nop    DWORD PTR [rax+0x0]
    7866:	66 2e 0f 1f 84 00 00 	nop    WORD PTR cs:[rax+rax*1+0x0]
    786d:	00 00 00 

0000000000007870 <__do_global_dtors_aux>:
    7870:	80 3d d9 27 24 00 00 	cmp    BYTE PTR [rip+0x2427d9],0x0        # 24a050 <__TMC_END__>
    7877:	75 2f                	jne    78a8 <__do_global_dtors_aux+0x38>
    7879:	48 83 3d b7 23 24 00 	cmp    QWORD PTR [rip+0x2423b7],0x0        # 249c38 <__cxa_finalize@GLIBC_2.2.5>
    7880:	00 
    7881:	55                   	push   rbp
    7882:	48 89 e5             	mov    rbp,rsp
    7885:	74 0c                	je     7893 <__do_global_dtors_aux+0x23>
    7887:	48 8b 3d 72 27 24 00 	mov    rdi,QWORD PTR [rip+0x242772]        # 24a000 <__dso_handle>
    788e:	e8 8d da ff ff       	call   5320 <__cxa_finalize@plt>
    7893:	e8 48 ff ff ff       	call   77e0 <deregister_tm_clones>
    7898:	c6 05 b1 27 24 00 01 	mov    BYTE PTR [rip+0x2427b1],0x1        # 24a050 <__TMC_END__>
    789f:	5d                   	pop    rbp
    78a0:	c3                   	ret    
    78a1:	0f 1f 80 00 00 00 00 	nop    DWORD PTR [rax+0x0]
    78a8:	f3 c3                	repz ret 
    78aa:	66 0f 1f 44 00 00    	nop    WORD PTR [rax+rax*1+0x0]

00000000000078b0 <frame_dummy>:
    78b0:	55                   	push   rbp
    78b1:	48 89 e5             	mov    rbp,rsp
    78b4:	5d                   	pop    rbp
    78b5:	e9 66 ff ff ff       	jmp    7820 <register_tm_clones>
    78ba:	66 0f 1f 44 00 00    	nop    WORD PTR [rax+rax*1+0x0]

00000000000078c0 <_ZN4core3fmt9Arguments6new_v117hcd533a3ff9b03c15E>:
    78c0:	48 83 ec 68          	sub    rsp,0x68
    78c4:	4c 89 04 24          	mov    QWORD PTR [rsp],r8
    78c8:	48 89 4c 24 08       	mov    QWORD PTR [rsp+0x8],rcx
    78cd:	48 89 54 24 10       	mov    QWORD PTR [rsp+0x10],rdx
    78d2:	48 89 74 24 18       	mov    QWORD PTR [rsp+0x18],rsi
    78d7:	48 89 7c 24 20       	mov    QWORD PTR [rsp+0x20],rdi
    78dc:	48 89 7c 24 28       	mov    QWORD PTR [rsp+0x28],rdi
    78e1:	48 89 74 24 48       	mov    QWORD PTR [rsp+0x48],rsi
    78e6:	48 89 54 24 50       	mov    QWORD PTR [rsp+0x50],rdx
    78eb:	48 89 4c 24 58       	mov    QWORD PTR [rsp+0x58],rcx
    78f0:	4c 89 44 24 60       	mov    QWORD PTR [rsp+0x60],r8
    78f5:	4c 39 c2             	cmp    rdx,r8
    78f8:	72 1b                	jb     7915 <_ZN4core3fmt9Arguments6new_v117hcd533a3ff9b03c15E+0x55>
    78fa:	48 8b 44 24 10       	mov    rax,QWORD PTR [rsp+0x10]
    78ff:	48 8b 0c 24          	mov    rcx,QWORD PTR [rsp]
    7903:	48 83 c1 01          	add    rcx,0x1
    7907:	48 39 c8             	cmp    rax,rcx
    790a:	0f 97 c0             	seta   al
    790d:	24 01                	and    al,0x1
    790f:	88 44 24 37          	mov    BYTE PTR [rsp+0x37],al
    7913:	eb 05                	jmp    791a <_ZN4core3fmt9Arguments6new_v117hcd533a3ff9b03c15E+0x5a>
    7915:	c6 44 24 37 01       	mov    BYTE PTR [rsp+0x37],0x1
    791a:	f6 44 24 37 01       	test   BYTE PTR [rsp+0x37],0x1
    791f:	75 4c                	jne    796d <_ZN4core3fmt9Arguments6new_v117hcd533a3ff9b03c15E+0xad>
    7921:	48 8b 44 24 28       	mov    rax,QWORD PTR [rsp+0x28]
    7926:	48 8b 4c 24 20       	mov    rcx,QWORD PTR [rsp+0x20]
    792b:	48 8b 14 24          	mov    rdx,QWORD PTR [rsp]
    792f:	48 8b 74 24 08       	mov    rsi,QWORD PTR [rsp+0x8]
    7934:	48 8b 7c 24 10       	mov    rdi,QWORD PTR [rsp+0x10]
    7939:	4c 8b 44 24 18       	mov    r8,QWORD PTR [rsp+0x18]
    793e:	48 c7 44 24 38 00 00 	mov    QWORD PTR [rsp+0x38],0x0
    7945:	00 00 
    7947:	4c 89 01             	mov    QWORD PTR [rcx],r8
    794a:	48 89 79 08          	mov    QWORD PTR [rcx+0x8],rdi
    794e:	4c 8b 44 24 38       	mov    r8,QWORD PTR [rsp+0x38]
    7953:	48 8b 7c 24 40       	mov    rdi,QWORD PTR [rsp+0x40]
    7958:	4c 89 41 10          	mov    QWORD PTR [rcx+0x10],r8
    795c:	48 89 79 18          	mov    QWORD PTR [rcx+0x18],rdi
    7960:	48 89 71 20          	mov    QWORD PTR [rcx+0x20],rsi
    7964:	48 89 51 28          	mov    QWORD PTR [rcx+0x28],rdx
    7968:	48 83 c4 68          	add    rsp,0x68
    796c:	c3                   	ret    
    796d:	48 8d 3d 1c 34 03 00 	lea    rdi,[rip+0x3341c]        # 3ad90 <_fini+0x10>
    7974:	48 8d 15 1d f9 23 00 	lea    rdx,[rip+0x23f91d]        # 247298 <__init_array_end+0x8>
    797b:	48 8d 05 fe f5 ff ff 	lea    rax,[rip+0xfffffffffffff5fe]        # 6f80 <_ZN4core9panicking5panic17h0ba7146865b2f9d6E>
    7982:	be 0c 00 00 00       	mov    esi,0xc
    7987:	ff d0                	call   rax
    7989:	0f 0b                	ud2    
    798b:	0f 1f 44 00 00       	nop    DWORD PTR [rax+rax*1+0x0]

0000000000007990 <_ZN3std3sys4unix7process14process_common8ExitCode6as_i3217h23cfe9b0a5d1af9cE>:
    7990:	50                   	push   rax
    7991:	48 89 3c 24          	mov    QWORD PTR [rsp],rdi
    7995:	0f b6 07             	movzx  eax,BYTE PTR [rdi]
    7998:	59                   	pop    rcx
    7999:	c3                   	ret    
    799a:	66 0f 1f 44 00 00    	nop    WORD PTR [rax+rax*1+0x0]

00000000000079a0 <_ZN4core4hint9black_box17hd22fb1c8bd0738a0E>:
    79a0:	50                   	push   rax
    79a1:	58                   	pop    rax
    79a2:	c3                   	ret    
    79a3:	66 2e 0f 1f 84 00 00 	nop    WORD PTR cs:[rax+rax*1+0x0]
    79aa:	00 00 00 
    79ad:	0f 1f 00             	nop    DWORD PTR [rax]

00000000000079b0 <_ZN23speed_ticket_calculator15speeding_ticket17h0cd13fea5ae9e062E>:
    79b0:	48 83 ec 28          	sub    rsp,0x28
    79b4:	89 7c 24 14          	mov    DWORD PTR [rsp+0x14],edi
    79b8:	40 88 f0             	mov    al,sil
    79bb:	89 7c 24 20          	mov    DWORD PTR [rsp+0x20],edi
    79bf:	88 c1                	mov    cl,al
    79c1:	80 e1 01             	and    cl,0x1
    79c4:	88 4c 24 27          	mov    BYTE PTR [rsp+0x27],cl
    79c8:	a8 01                	test   al,0x1
    79ca:	75 0a                	jne    79d6 <_ZN23speed_ticket_calculator15speeding_ticket17h0cd13fea5ae9e062E+0x26>
    79cc:	c7 44 24 1c 00 00 00 	mov    DWORD PTR [rsp+0x1c],0x0
    79d3:	00 
    79d4:	eb 08                	jmp    79de <_ZN23speed_ticket_calculator15speeding_ticket17h0cd13fea5ae9e062E+0x2e>
    79d6:	c7 44 24 1c 05 00 00 	mov    DWORD PTR [rsp+0x1c],0x5
    79dd:	00 
    79de:	8b 44 24 1c          	mov    eax,DWORD PTR [rsp+0x1c]
    79e2:	83 c0 50             	add    eax,0x50
    79e5:	89 44 24 10          	mov    DWORD PTR [rsp+0x10],eax
    79e9:	0f 90 c0             	seto   al
    79ec:	a8 01                	test   al,0x1
    79ee:	75 0e                	jne    79fe <_ZN23speed_ticket_calculator15speeding_ticket17h0cd13fea5ae9e062E+0x4e>
    79f0:	8b 44 24 14          	mov    eax,DWORD PTR [rsp+0x14]
    79f4:	8b 4c 24 10          	mov    ecx,DWORD PTR [rsp+0x10]
    79f8:	39 c8                	cmp    eax,ecx
    79fa:	7f 34                	jg     7a30 <_ZN23speed_ticket_calculator15speeding_ticket17h0cd13fea5ae9e062E+0x80>
    79fc:	eb 1e                	jmp    7a1c <_ZN23speed_ticket_calculator15speeding_ticket17h0cd13fea5ae9e062E+0x6c>
    79fe:	48 8d 3d fb 33 03 00 	lea    rdi,[rip+0x333fb]        # 3ae00 <str.0>
    7a05:	48 8d 15 a4 f8 23 00 	lea    rdx,[rip+0x23f8a4]        # 2472b0 <__init_array_end+0x20>
    7a0c:	48 8d 05 6d f5 ff ff 	lea    rax,[rip+0xfffffffffffff56d]        # 6f80 <_ZN4core9panicking5panic17h0ba7146865b2f9d6E>
    7a13:	be 1c 00 00 00       	mov    esi,0x1c
    7a18:	ff d0                	call   rax
    7a1a:	0f 0b                	ud2    
    7a1c:	8b 44 24 1c          	mov    eax,DWORD PTR [rsp+0x1c]
    7a20:	83 c0 3c             	add    eax,0x3c
    7a23:	89 44 24 0c          	mov    DWORD PTR [rsp+0xc],eax
    7a27:	0f 90 c0             	seto   al
    7a2a:	a8 01                	test   al,0x1
    7a2c:	75 1e                	jne    7a4c <_ZN23speed_ticket_calculator15speeding_ticket17h0cd13fea5ae9e062E+0x9c>
    7a2e:	eb 0e                	jmp    7a3e <_ZN23speed_ticket_calculator15speeding_ticket17h0cd13fea5ae9e062E+0x8e>
    7a30:	c6 44 24 1b 02       	mov    BYTE PTR [rsp+0x1b],0x2
    7a35:	8a 44 24 1b          	mov    al,BYTE PTR [rsp+0x1b]
    7a39:	48 83 c4 28          	add    rsp,0x28
    7a3d:	c3                   	ret    
    7a3e:	8b 44 24 14          	mov    eax,DWORD PTR [rsp+0x14]
    7a42:	8b 4c 24 0c          	mov    ecx,DWORD PTR [rsp+0xc]
    7a46:	39 c8                	cmp    eax,ecx
    7a48:	7f 27                	jg     7a71 <_ZN23speed_ticket_calculator15speeding_ticket17h0cd13fea5ae9e062E+0xc1>
    7a4a:	eb 1e                	jmp    7a6a <_ZN23speed_ticket_calculator15speeding_ticket17h0cd13fea5ae9e062E+0xba>
    7a4c:	48 8d 3d ad 33 03 00 	lea    rdi,[rip+0x333ad]        # 3ae00 <str.0>
    7a53:	48 8d 15 6e f8 23 00 	lea    rdx,[rip+0x23f86e]        # 2472c8 <__init_array_end+0x38>
    7a5a:	48 8d 05 1f f5 ff ff 	lea    rax,[rip+0xfffffffffffff51f]        # 6f80 <_ZN4core9panicking5panic17h0ba7146865b2f9d6E>
    7a61:	be 1c 00 00 00       	mov    esi,0x1c
    7a66:	ff d0                	call   rax
    7a68:	0f 0b                	ud2    
    7a6a:	c6 44 24 1b 00       	mov    BYTE PTR [rsp+0x1b],0x0
    7a6f:	eb c4                	jmp    7a35 <_ZN23speed_ticket_calculator15speeding_ticket17h0cd13fea5ae9e062E+0x85>
    7a71:	c6 44 24 1b 01       	mov    BYTE PTR [rsp+0x1b],0x1
    7a76:	eb bd                	jmp    7a35 <_ZN23speed_ticket_calculator15speeding_ticket17h0cd13fea5ae9e062E+0x85>
    7a78:	0f 1f 84 00 00 00 00 	nop    DWORD PTR [rax+rax*1+0x0]
    7a7f:	00 

0000000000007a80 <_ZN23speed_ticket_calculator4main17h3900b66fa9d7f000E>:
    7a80:	48 81 ec 68 01 00 00 	sub    rsp,0x168
    7a87:	48 8d 7c 24 30       	lea    rdi,[rsp+0x30]
    7a8c:	48 8d 35 4d f8 23 00 	lea    rsi,[rip+0x23f84d]        # 2472e0 <__init_array_end+0x50>
    7a93:	ba 01 00 00 00       	mov    edx,0x1
    7a98:	48 8d 0d 91 33 03 00 	lea    rcx,[rip+0x33391]        # 3ae30 <str.0+0x30>
    7a9f:	31 c0                	xor    eax,eax
    7aa1:	41 89 c0             	mov    r8d,eax
    7aa4:	e8 17 fe ff ff       	call   78c0 <_ZN4core3fmt9Arguments6new_v117hcd533a3ff9b03c15E>
    7aa9:	48 8d 7c 24 30       	lea    rdi,[rsp+0x30]
    7aae:	ff 15 3c 24 24 00    	call   QWORD PTR [rip+0x24243c]        # 249ef0 <_GLOBAL_OFFSET_TABLE_+0x598>
    7ab4:	bf 3c 00 00 00       	mov    edi,0x3c
    7ab9:	31 f6                	xor    esi,esi
    7abb:	e8 f0 fe ff ff       	call   79b0 <_ZN23speed_ticket_calculator15speeding_ticket17h0cd13fea5ae9e062E>
    7ac0:	88 44 24 67          	mov    BYTE PTR [rsp+0x67],al
    7ac4:	48 8d 44 24 67       	lea    rax,[rsp+0x67]
    7ac9:	48 89 84 24 a8 00 00 	mov    QWORD PTR [rsp+0xa8],rax
    7ad0:	00 
    7ad1:	48 8b bc 24 a8 00 00 	mov    rdi,QWORD PTR [rsp+0xa8]
    7ad8:	00 
    7ad9:	48 89 bc 24 50 01 00 	mov    QWORD PTR [rsp+0x150],rdi
    7ae0:	00 
    7ae1:	48 8d 35 98 01 00 00 	lea    rsi,[rip+0x198]        # 7c80 <_ZN76_$LT$speed_ticket_calculator..SpeedingTicket$u20$as$u20$core..fmt..Debug$GT$3fmt17h5ea77b81cf09e57dE>
    7ae8:	e8 23 03 00 00       	call   7e10 <_ZN4core3fmt10ArgumentV13new17h1eeba7e49b9dd120E>
    7aed:	48 89 44 24 20       	mov    QWORD PTR [rsp+0x20],rax
    7af2:	48 89 54 24 28       	mov    QWORD PTR [rsp+0x28],rdx
    7af7:	48 8b 44 24 28       	mov    rax,QWORD PTR [rsp+0x28]
    7afc:	48 8b 4c 24 20       	mov    rcx,QWORD PTR [rsp+0x20]
    7b01:	48 89 8c 24 98 00 00 	mov    QWORD PTR [rsp+0x98],rcx
    7b08:	00 
    7b09:	48 89 84 24 a0 00 00 	mov    QWORD PTR [rsp+0xa0],rax
    7b10:	00 
    7b11:	48 8d 8c 24 98 00 00 	lea    rcx,[rsp+0x98]
    7b18:	00 
    7b19:	48 8d 7c 24 68       	lea    rdi,[rsp+0x68]
    7b1e:	48 8d 35 cb f7 23 00 	lea    rsi,[rip+0x23f7cb]        # 2472f0 <__init_array_end+0x60>
    7b25:	ba 02 00 00 00       	mov    edx,0x2
    7b2a:	41 b8 01 00 00 00    	mov    r8d,0x1
    7b30:	e8 8b fd ff ff       	call   78c0 <_ZN4core3fmt9Arguments6new_v117hcd533a3ff9b03c15E>
    7b35:	48 8d 7c 24 68       	lea    rdi,[rsp+0x68]
    7b3a:	ff 15 b0 23 24 00    	call   QWORD PTR [rip+0x2423b0]        # 249ef0 <_GLOBAL_OFFSET_TABLE_+0x598>
    7b40:	bf 41 00 00 00       	mov    edi,0x41
    7b45:	31 f6                	xor    esi,esi
    7b47:	e8 64 fe ff ff       	call   79b0 <_ZN23speed_ticket_calculator15speeding_ticket17h0cd13fea5ae9e062E>
    7b4c:	88 84 24 b7 00 00 00 	mov    BYTE PTR [rsp+0xb7],al
    7b53:	48 8d 84 24 b7 00 00 	lea    rax,[rsp+0xb7]
    7b5a:	00 
    7b5b:	48 89 84 24 f8 00 00 	mov    QWORD PTR [rsp+0xf8],rax
    7b62:	00 
    7b63:	48 8b bc 24 f8 00 00 	mov    rdi,QWORD PTR [rsp+0xf8]
    7b6a:	00 
    7b6b:	48 89 bc 24 58 01 00 	mov    QWORD PTR [rsp+0x158],rdi
    7b72:	00 
    7b73:	48 8d 35 06 01 00 00 	lea    rsi,[rip+0x106]        # 7c80 <_ZN76_$LT$speed_ticket_calculator..SpeedingTicket$u20$as$u20$core..fmt..Debug$GT$3fmt17h5ea77b81cf09e57dE>
    7b7a:	e8 91 02 00 00       	call   7e10 <_ZN4core3fmt10ArgumentV13new17h1eeba7e49b9dd120E>
    7b7f:	48 89 44 24 10       	mov    QWORD PTR [rsp+0x10],rax
    7b84:	48 89 54 24 18       	mov    QWORD PTR [rsp+0x18],rdx
    7b89:	48 8b 44 24 18       	mov    rax,QWORD PTR [rsp+0x18]
    7b8e:	48 8b 4c 24 10       	mov    rcx,QWORD PTR [rsp+0x10]
    7b93:	48 89 8c 24 e8 00 00 	mov    QWORD PTR [rsp+0xe8],rcx
    7b9a:	00 
    7b9b:	48 89 84 24 f0 00 00 	mov    QWORD PTR [rsp+0xf0],rax
    7ba2:	00 
    7ba3:	48 8d 8c 24 e8 00 00 	lea    rcx,[rsp+0xe8]
    7baa:	00 
    7bab:	48 8d bc 24 b8 00 00 	lea    rdi,[rsp+0xb8]
    7bb2:	00 
    7bb3:	48 8d 35 36 f7 23 00 	lea    rsi,[rip+0x23f736]        # 2472f0 <__init_array_end+0x60>
    7bba:	ba 02 00 00 00       	mov    edx,0x2
    7bbf:	41 b8 01 00 00 00    	mov    r8d,0x1
    7bc5:	e8 f6 fc ff ff       	call   78c0 <_ZN4core3fmt9Arguments6new_v117hcd533a3ff9b03c15E>
    7bca:	48 8d bc 24 b8 00 00 	lea    rdi,[rsp+0xb8]
    7bd1:	00 
    7bd2:	ff 15 18 23 24 00    	call   QWORD PTR [rip+0x242318]        # 249ef0 <_GLOBAL_OFFSET_TABLE_+0x598>
    7bd8:	bf 41 00 00 00       	mov    edi,0x41
    7bdd:	be 01 00 00 00       	mov    esi,0x1
    7be2:	e8 c9 fd ff ff       	call   79b0 <_ZN23speed_ticket_calculator15speeding_ticket17h0cd13fea5ae9e062E>
    7be7:	88 84 24 07 01 00 00 	mov    BYTE PTR [rsp+0x107],al
    7bee:	48 8d 84 24 07 01 00 	lea    rax,[rsp+0x107]
    7bf5:	00 
    7bf6:	48 89 84 24 48 01 00 	mov    QWORD PTR [rsp+0x148],rax
    7bfd:	00 
    7bfe:	48 8b bc 24 48 01 00 	mov    rdi,QWORD PTR [rsp+0x148]
    7c05:	00 
    7c06:	48 89 bc 24 60 01 00 	mov    QWORD PTR [rsp+0x160],rdi
    7c0d:	00 
    7c0e:	48 8d 35 6b 00 00 00 	lea    rsi,[rip+0x6b]        # 7c80 <_ZN76_$LT$speed_ticket_calculator..SpeedingTicket$u20$as$u20$core..fmt..Debug$GT$3fmt17h5ea77b81cf09e57dE>
    7c15:	e8 f6 01 00 00       	call   7e10 <_ZN4core3fmt10ArgumentV13new17h1eeba7e49b9dd120E>
    7c1a:	48 89 04 24          	mov    QWORD PTR [rsp],rax
    7c1e:	48 89 54 24 08       	mov    QWORD PTR [rsp+0x8],rdx
    7c23:	48 8b 44 24 08       	mov    rax,QWORD PTR [rsp+0x8]
    7c28:	48 8b 0c 24          	mov    rcx,QWORD PTR [rsp]
    7c2c:	48 89 8c 24 38 01 00 	mov    QWORD PTR [rsp+0x138],rcx
    7c33:	00 
    7c34:	48 89 84 24 40 01 00 	mov    QWORD PTR [rsp+0x140],rax
    7c3b:	00 
    7c3c:	48 8d 8c 24 38 01 00 	lea    rcx,[rsp+0x138]
    7c43:	00 
    7c44:	48 8d bc 24 08 01 00 	lea    rdi,[rsp+0x108]
    7c4b:	00 
    7c4c:	48 8d 35 9d f6 23 00 	lea    rsi,[rip+0x23f69d]        # 2472f0 <__init_array_end+0x60>
    7c53:	ba 02 00 00 00       	mov    edx,0x2
    7c58:	41 b8 01 00 00 00    	mov    r8d,0x1
    7c5e:	e8 5d fc ff ff       	call   78c0 <_ZN4core3fmt9Arguments6new_v117hcd533a3ff9b03c15E>
    7c63:	48 8d bc 24 08 01 00 	lea    rdi,[rsp+0x108]
    7c6a:	00 
    7c6b:	ff 15 7f 22 24 00    	call   QWORD PTR [rip+0x24227f]        # 249ef0 <_GLOBAL_OFFSET_TABLE_+0x598>
    7c71:	48 81 c4 68 01 00 00 	add    rsp,0x168
    7c78:	c3                   	ret    
    7c79:	0f 1f 80 00 00 00 00 	nop    DWORD PTR [rax+0x0]

0000000000007c80 <_ZN76_$LT$speed_ticket_calculator..SpeedingTicket$u20$as$u20$core..fmt..Debug$GT$3fmt17h5ea77b81cf09e57dE>:
    7c80:	48 83 ec 38          	sub    rsp,0x38
    7c84:	48 89 74 24 08       	mov    QWORD PTR [rsp+0x8],rsi
    7c89:	48 89 7c 24 28       	mov    QWORD PTR [rsp+0x28],rdi
    7c8e:	48 89 74 24 30       	mov    QWORD PTR [rsp+0x30],rsi
    7c93:	48 89 7c 24 20       	mov    QWORD PTR [rsp+0x20],rdi
    7c98:	48 8b 44 24 20       	mov    rax,QWORD PTR [rsp+0x20]
    7c9d:	0f b6 00             	movzx  eax,BYTE PTR [rax]
    7ca0:	48 89 44 24 10       	mov    QWORD PTR [rsp+0x10],rax
    7ca5:	48 85 c0             	test   rax,rax
    7ca8:	74 13                	je     7cbd <_ZN76_$LT$speed_ticket_calculator..SpeedingTicket$u20$as$u20$core..fmt..Debug$GT$3fmt17h5ea77b81cf09e57dE+0x3d>
    7caa:	eb 00                	jmp    7cac <_ZN76_$LT$speed_ticket_calculator..SpeedingTicket$u20$as$u20$core..fmt..Debug$GT$3fmt17h5ea77b81cf09e57dE+0x2c>
    7cac:	48 8b 44 24 10       	mov    rax,QWORD PTR [rsp+0x10]
    7cb1:	48 83 e8 01          	sub    rax,0x1
    7cb5:	74 25                	je     7cdc <_ZN76_$LT$speed_ticket_calculator..SpeedingTicket$u20$as$u20$core..fmt..Debug$GT$3fmt17h5ea77b81cf09e57dE+0x5c>
    7cb7:	eb 00                	jmp    7cb9 <_ZN76_$LT$speed_ticket_calculator..SpeedingTicket$u20$as$u20$core..fmt..Debug$GT$3fmt17h5ea77b81cf09e57dE+0x39>
    7cb9:	eb 40                	jmp    7cfb <_ZN76_$LT$speed_ticket_calculator..SpeedingTicket$u20$as$u20$core..fmt..Debug$GT$3fmt17h5ea77b81cf09e57dE+0x7b>
    7cbb:	0f 0b                	ud2    
    7cbd:	48 8b 7c 24 08       	mov    rdi,QWORD PTR [rsp+0x8]
    7cc2:	48 8d 35 7e 31 03 00 	lea    rsi,[rip+0x3317e]        # 3ae47 <str.0+0x47>
    7cc9:	ba 08 00 00 00       	mov    edx,0x8
    7cce:	ff 15 9c 1f 24 00    	call   QWORD PTR [rip+0x241f9c]        # 249c70 <_GLOBAL_OFFSET_TABLE_+0x318>
    7cd4:	24 01                	and    al,0x1
    7cd6:	88 44 24 1f          	mov    BYTE PTR [rsp+0x1f],al
    7cda:	eb 3c                	jmp    7d18 <_ZN76_$LT$speed_ticket_calculator..SpeedingTicket$u20$as$u20$core..fmt..Debug$GT$3fmt17h5ea77b81cf09e57dE+0x98>
    7cdc:	48 8b 7c 24 08       	mov    rdi,QWORD PTR [rsp+0x8]
    7ce1:	48 8d 35 52 31 03 00 	lea    rsi,[rip+0x33152]        # 3ae3a <str.0+0x3a>
    7ce8:	ba 0d 00 00 00       	mov    edx,0xd
    7ced:	ff 15 7d 1f 24 00    	call   QWORD PTR [rip+0x241f7d]        # 249c70 <_GLOBAL_OFFSET_TABLE_+0x318>
    7cf3:	24 01                	and    al,0x1
    7cf5:	88 44 24 1f          	mov    BYTE PTR [rsp+0x1f],al
    7cf9:	eb 1d                	jmp    7d18 <_ZN76_$LT$speed_ticket_calculator..SpeedingTicket$u20$as$u20$core..fmt..Debug$GT$3fmt17h5ea77b81cf09e57dE+0x98>
    7cfb:	48 8b 7c 24 08       	mov    rdi,QWORD PTR [rsp+0x8]
    7d00:	48 8d 35 2a 31 03 00 	lea    rsi,[rip+0x3312a]        # 3ae31 <str.0+0x31>
    7d07:	ba 09 00 00 00       	mov    edx,0x9
    7d0c:	ff 15 5e 1f 24 00    	call   QWORD PTR [rip+0x241f5e]        # 249c70 <_GLOBAL_OFFSET_TABLE_+0x318>
    7d12:	24 01                	and    al,0x1
    7d14:	88 44 24 1f          	mov    BYTE PTR [rsp+0x1f],al
    7d18:	8a 44 24 1f          	mov    al,BYTE PTR [rsp+0x1f]
    7d1c:	24 01                	and    al,0x1
    7d1e:	0f b6 c0             	movzx  eax,al
    7d21:	48 83 c4 38          	add    rsp,0x38
    7d25:	c3                   	ret    
    7d26:	66 2e 0f 1f 84 00 00 	nop    WORD PTR cs:[rax+rax*1+0x0]
    7d2d:	00 00 00 

0000000000007d30 <main>:
    7d30:	50                   	push   rax
    7d31:	48 89 f2             	mov    rdx,rsi
    7d34:	48 8d 05 9c 82 03 00 	lea    rax,[rip+0x3829c]        # 3ffd7 <__rustc_debug_gdb_scripts_section__>
    7d3b:	8a 00                	mov    al,BYTE PTR [rax]
    7d3d:	48 63 f7             	movsxd rsi,edi
    7d40:	48 8d 3d 39 fd ff ff 	lea    rdi,[rip+0xfffffffffffffd39]        # 7a80 <_ZN23speed_ticket_calculator4main17h3900b66fa9d7f000E>
    7d47:	e8 44 00 00 00       	call   7d90 <_ZN3std2rt10lang_start17h2a37cedf3d303c5fE>
    7d4c:	59                   	pop    rcx
    7d4d:	c3                   	ret    
    7d4e:	66 90                	xchg   ax,ax

0000000000007d50 <_ZN54_$LT$$LP$$RP$$u20$as$u20$std..process..Termination$GT$6report17h8164512e73d6e92cE>:
    7d50:	48 83 ec 18          	sub    rsp,0x18
    7d54:	31 ff                	xor    edi,edi
    7d56:	e8 15 00 00 00       	call   7d70 <_ZN68_$LT$std..process..ExitCode$u20$as$u20$std..process..Termination$GT$6report17h330645a92404b97eE>
    7d5b:	89 44 24 0c          	mov    DWORD PTR [rsp+0xc],eax
    7d5f:	8b 44 24 0c          	mov    eax,DWORD PTR [rsp+0xc]
    7d63:	48 83 c4 18          	add    rsp,0x18
    7d67:	c3                   	ret    
    7d68:	0f 1f 84 00 00 00 00 	nop    DWORD PTR [rax+rax*1+0x0]
    7d6f:	00 

0000000000007d70 <_ZN68_$LT$std..process..ExitCode$u20$as$u20$std..process..Termination$GT$6report17h330645a92404b97eE>:
    7d70:	50                   	push   rax
    7d71:	40 88 f8             	mov    al,dil
    7d74:	88 44 24 07          	mov    BYTE PTR [rsp+0x7],al
    7d78:	48 8d 7c 24 07       	lea    rdi,[rsp+0x7]
    7d7d:	e8 0e fc ff ff       	call   7990 <_ZN3std3sys4unix7process14process_common8ExitCode6as_i3217h23cfe9b0a5d1af9cE>
    7d82:	89 04 24             	mov    DWORD PTR [rsp],eax
    7d85:	8b 04 24             	mov    eax,DWORD PTR [rsp]
    7d88:	59                   	pop    rcx
    7d89:	c3                   	ret    
    7d8a:	66 0f 1f 44 00 00    	nop    WORD PTR [rax+rax*1+0x0]

0000000000007d90 <_ZN3std2rt10lang_start17h2a37cedf3d303c5fE>:
    7d90:	48 83 ec 38          	sub    rsp,0x38
    7d94:	48 89 d1             	mov    rcx,rdx
    7d97:	48 89 f2             	mov    rdx,rsi
    7d9a:	48 89 7c 24 18       	mov    QWORD PTR [rsp+0x18],rdi
    7d9f:	48 89 54 24 20       	mov    QWORD PTR [rsp+0x20],rdx
    7da4:	48 89 4c 24 28       	mov    QWORD PTR [rsp+0x28],rcx
    7da9:	48 89 7c 24 10       	mov    QWORD PTR [rsp+0x10],rdi
    7dae:	48 8d 7c 24 10       	lea    rdi,[rsp+0x10]
    7db3:	48 8d 35 56 f5 23 00 	lea    rsi,[rip+0x23f556]        # 247310 <__init_array_end+0x80>
    7dba:	ff 15 10 21 24 00    	call   QWORD PTR [rip+0x242110]        # 249ed0 <_GLOBAL_OFFSET_TABLE_+0x578>
    7dc0:	48 89 44 24 08       	mov    QWORD PTR [rsp+0x8],rax
    7dc5:	48 8b 44 24 08       	mov    rax,QWORD PTR [rsp+0x8]
    7dca:	48 89 44 24 30       	mov    QWORD PTR [rsp+0x30],rax
    7dcf:	48 83 c4 38          	add    rsp,0x38
    7dd3:	c3                   	ret    
    7dd4:	66 2e 0f 1f 84 00 00 	nop    WORD PTR cs:[rax+rax*1+0x0]
    7ddb:	00 00 00 
    7dde:	66 90                	xchg   ax,ax

0000000000007de0 <_ZN3std2rt10lang_start28_$u7b$$u7b$closure$u7d$$u7d$17h3e1e31152675e98fE>:
    7de0:	48 83 ec 18          	sub    rsp,0x18
    7de4:	48 89 7c 24 10       	mov    QWORD PTR [rsp+0x10],rdi
    7de9:	48 8b 3f             	mov    rdi,QWORD PTR [rdi]
    7dec:	e8 7f 00 00 00       	call   7e70 <_ZN3std10sys_common9backtrace28__rust_begin_short_backtrace17h5b309ddab9dbb7e1E>
    7df1:	e8 5a ff ff ff       	call   7d50 <_ZN54_$LT$$LP$$RP$$u20$as$u20$std..process..Termination$GT$6report17h8164512e73d6e92cE>
    7df6:	89 44 24 0c          	mov    DWORD PTR [rsp+0xc],eax
    7dfa:	8b 44 24 0c          	mov    eax,DWORD PTR [rsp+0xc]
    7dfe:	48 83 c4 18          	add    rsp,0x18
    7e02:	c3                   	ret    
    7e03:	66 2e 0f 1f 84 00 00 	nop    WORD PTR cs:[rax+rax*1+0x0]
    7e0a:	00 00 00 
    7e0d:	0f 1f 00             	nop    DWORD PTR [rax]

0000000000007e10 <_ZN4core3fmt10ArgumentV13new17h1eeba7e49b9dd120E>:
    7e10:	48 83 ec 48          	sub    rsp,0x48
    7e14:	48 89 7c 24 08       	mov    QWORD PTR [rsp+0x8],rdi
    7e19:	48 89 7c 24 28       	mov    QWORD PTR [rsp+0x28],rdi
    7e1e:	48 89 74 24 30       	mov    QWORD PTR [rsp+0x30],rsi
    7e23:	48 89 74 24 38       	mov    QWORD PTR [rsp+0x38],rsi
    7e28:	48 8b 44 24 38       	mov    rax,QWORD PTR [rsp+0x38]
    7e2d:	48 89 44 24 10       	mov    QWORD PTR [rsp+0x10],rax
    7e32:	48 8b 44 24 08       	mov    rax,QWORD PTR [rsp+0x8]
    7e37:	48 89 44 24 40       	mov    QWORD PTR [rsp+0x40],rax
    7e3c:	48 8b 44 24 40       	mov    rax,QWORD PTR [rsp+0x40]
    7e41:	48 89 04 24          	mov    QWORD PTR [rsp],rax
    7e45:	48 8b 44 24 10       	mov    rax,QWORD PTR [rsp+0x10]
    7e4a:	48 8b 0c 24          	mov    rcx,QWORD PTR [rsp]
    7e4e:	48 89 4c 24 18       	mov    QWORD PTR [rsp+0x18],rcx
    7e53:	48 89 44 24 20       	mov    QWORD PTR [rsp+0x20],rax
    7e58:	48 8b 44 24 18       	mov    rax,QWORD PTR [rsp+0x18]
    7e5d:	48 8b 54 24 20       	mov    rdx,QWORD PTR [rsp+0x20]
    7e62:	48 83 c4 48          	add    rsp,0x48
    7e66:	c3                   	ret    
    7e67:	66 0f 1f 84 00 00 00 	nop    WORD PTR [rax+rax*1+0x0]
    7e6e:	00 00 

0000000000007e70 <_ZN3std10sys_common9backtrace28__rust_begin_short_backtrace17h5b309ddab9dbb7e1E>:
    7e70:	48 83 ec 28          	sub    rsp,0x28
    7e74:	48 89 7c 24 10       	mov    QWORD PTR [rsp+0x10],rdi
    7e79:	e8 a2 00 00 00       	call   7f20 <_ZN4core3ops8function6FnOnce9call_once17hf5e24301b3baa591E>
    7e7e:	e8 1d fb ff ff       	call   79a0 <_ZN4core4hint9black_box17hd22fb1c8bd0738a0E>
    7e83:	eb 00                	jmp    7e85 <_ZN3std10sys_common9backtrace28__rust_begin_short_backtrace17h5b309ddab9dbb7e1E+0x15>
    7e85:	48 83 c4 28          	add    rsp,0x28
    7e89:	c3                   	ret    
    7e8a:	eb 10                	jmp    7e9c <_ZN3std10sys_common9backtrace28__rust_begin_short_backtrace17h5b309ddab9dbb7e1E+0x2c>
    7e8c:	48 89 c1             	mov    rcx,rax
    7e8f:	89 d0                	mov    eax,edx
    7e91:	48 89 4c 24 18       	mov    QWORD PTR [rsp+0x18],rcx
    7e96:	89 44 24 20          	mov    DWORD PTR [rsp+0x20],eax
    7e9a:	eb ee                	jmp    7e8a <_ZN3std10sys_common9backtrace28__rust_begin_short_backtrace17h5b309ddab9dbb7e1E+0x1a>
    7e9c:	48 8b 7c 24 18       	mov    rdi,QWORD PTR [rsp+0x18]
    7ea1:	e8 6a d4 ff ff       	call   5310 <_Unwind_Resume@plt>
    7ea6:	0f 0b                	ud2    
    7ea8:	0f 1f 84 00 00 00 00 	nop    DWORD PTR [rax+rax*1+0x0]
    7eaf:	00 

0000000000007eb0 <_ZN4core3ops8function6FnOnce40call_once$u7b$$u7b$vtable.shim$u7d$$u7d$17h2063fe74feed39e3E>:
    7eb0:	48 83 ec 18          	sub    rsp,0x18
    7eb4:	48 89 7c 24 10       	mov    QWORD PTR [rsp+0x10],rdi
    7eb9:	48 8b 3f             	mov    rdi,QWORD PTR [rdi]
    7ebc:	e8 0f 00 00 00       	call   7ed0 <_ZN4core3ops8function6FnOnce9call_once17h16bfbc9a32a7d779E>
    7ec1:	89 44 24 04          	mov    DWORD PTR [rsp+0x4],eax
    7ec5:	8b 44 24 04          	mov    eax,DWORD PTR [rsp+0x4]
    7ec9:	48 83 c4 18          	add    rsp,0x18
    7ecd:	c3                   	ret    
    7ece:	66 90                	xchg   ax,ax

0000000000007ed0 <_ZN4core3ops8function6FnOnce9call_once17h16bfbc9a32a7d779E>:
    7ed0:	48 83 ec 28          	sub    rsp,0x28
    7ed4:	48 89 7c 24 08       	mov    QWORD PTR [rsp+0x8],rdi
    7ed9:	48 8d 7c 24 08       	lea    rdi,[rsp+0x8]
    7ede:	e8 fd fe ff ff       	call   7de0 <_ZN3std2rt10lang_start28_$u7b$$u7b$closure$u7d$$u7d$17h3e1e31152675e98fE>
    7ee3:	89 44 24 04          	mov    DWORD PTR [rsp+0x4],eax
    7ee7:	eb 00                	jmp    7ee9 <_ZN4core3ops8function6FnOnce9call_once17h16bfbc9a32a7d779E+0x19>
    7ee9:	eb 1e                	jmp    7f09 <_ZN4core3ops8function6FnOnce9call_once17h16bfbc9a32a7d779E+0x39>
    7eeb:	eb 10                	jmp    7efd <_ZN4core3ops8function6FnOnce9call_once17h16bfbc9a32a7d779E+0x2d>
    7eed:	48 89 c1             	mov    rcx,rax
    7ef0:	89 d0                	mov    eax,edx
    7ef2:	48 89 4c 24 18       	mov    QWORD PTR [rsp+0x18],rcx
    7ef7:	89 44 24 20          	mov    DWORD PTR [rsp+0x20],eax
    7efb:	eb ee                	jmp    7eeb <_ZN4core3ops8function6FnOnce9call_once17h16bfbc9a32a7d779E+0x1b>
    7efd:	48 8b 7c 24 18       	mov    rdi,QWORD PTR [rsp+0x18]
    7f02:	e8 09 d4 ff ff       	call   5310 <_Unwind_Resume@plt>
    7f07:	0f 0b                	ud2    
    7f09:	8b 44 24 04          	mov    eax,DWORD PTR [rsp+0x4]
    7f0d:	48 83 c4 28          	add    rsp,0x28
    7f11:	c3                   	ret    
    7f12:	66 2e 0f 1f 84 00 00 	nop    WORD PTR cs:[rax+rax*1+0x0]
    7f19:	00 00 00 
    7f1c:	0f 1f 40 00          	nop    DWORD PTR [rax+0x0]

0000000000007f20 <_ZN4core3ops8function6FnOnce9call_once17hf5e24301b3baa591E>:
    7f20:	48 83 ec 18          	sub    rsp,0x18
    7f24:	48 89 7c 24 10       	mov    QWORD PTR [rsp+0x10],rdi
    7f29:	ff d7                	call   rdi
    7f2b:	48 83 c4 18          	add    rsp,0x18
    7f2f:	c3                   	ret    

0000000000007f30 <_ZN4core3ptr85drop_in_place$LT$std..rt..lang_start$LT$$LP$$RP$$GT$..$u7b$$u7b$closure$u7d$$u7d$$GT$17h867ece48dfa89fb2E>:
    7f30:	50                   	push   rax
    7f31:	48 89 3c 24          	mov    QWORD PTR [rsp],rdi
    7f35:	58                   	pop    rax
    7f36:	c3                   	ret    
    7f37:	66 0f 1f 84 00 00 00 	nop    WORD PTR [rax+rax*1+0x0]
    7f3e:	00 00 

0000000000007f40 <__rust_alloc>:
    7f40:	e9 7b 5f 01 00       	jmp    1dec0 <__rdl_alloc>
    7f45:	66 2e 0f 1f 84 00 00 	nop    WORD PTR cs:[rax+rax*1+0x0]
    7f4c:	00 00 00 
    7f4f:	90                   	nop

0000000000007f50 <__rust_dealloc>:
    7f50:	e9 bb 5f 01 00       	jmp    1df10 <__rdl_dealloc>
    7f55:	66 2e 0f 1f 84 00 00 	nop    WORD PTR cs:[rax+rax*1+0x0]
    7f5c:	00 00 00 
    7f5f:	90                   	nop

0000000000007f60 <__rust_realloc>:
    7f60:	e9 bb 5f 01 00       	jmp    1df20 <__rdl_realloc>
    7f65:	66 2e 0f 1f 84 00 00 	nop    WORD PTR cs:[rax+rax*1+0x0]
    7f6c:	00 00 00 
    7f6f:	90                   	nop

0000000000007f70 <__rust_alloc_zeroed>:
    7f70:	e9 4b 60 01 00       	jmp    1dfc0 <__rdl_alloc_zeroed>
    7f75:	66 2e 0f 1f 84 00 00 	nop    WORD PTR cs:[rax+rax*1+0x0]
    7f7c:	00 00 00 
    7f7f:	90                   	nop

0000000000007f80 <__rust_alloc_error_handler>:
    7f80:	e9 5b dd 02 00       	jmp    35ce0 <__rg_oom>
    7f85:	66 2e 0f 1f 84 00 00 	nop    WORD PTR cs:[rax+rax*1+0x0]
    7f8c:	00 00 00 
    7f8f:	90                   	nop

0000000000007f90 <_ZN36_$LT$T$u20$as$u20$core..any..Any$GT$7type_id17hc8f78843d579f416E>:
    7f90:	48 b8 f4 bc c7 ec 1e 	movabs rax,0x7ef2a91eecc7bcf4
    7f97:	a9 f2 7e 
    7f9a:	c3                   	ret    
    7f9b:	0f 1f 44 00 00       	nop    DWORD PTR [rax+rax*1+0x0]

0000000000007fa0 <_ZN36_$LT$T$u20$as$u20$core..any..Any$GT$7type_id17hd398a7fa38432795E>:
    7fa0:	48 b8 ba 83 c9 09 c8 	movabs rax,0xda74c809c983ba
    7fa7:	74 da 00 
    7faa:	c3                   	ret    
    7fab:	0f 1f 44 00 00       	nop    DWORD PTR [rax+rax*1+0x0]

0000000000007fb0 <_ZN36_$LT$T$u20$as$u20$core..any..Any$GT$7type_id17hd9707c460bbf907cE>:
    7fb0:	48 b8 f9 00 26 fa 2d 	movabs rax,0x3a49c62dfa2600f9
    7fb7:	c6 49 3a 
    7fba:	c3                   	ret    
    7fbb:	0f 1f 44 00 00       	nop    DWORD PTR [rax+rax*1+0x0]

0000000000007fc0 <_ZN42_$LT$$RF$T$u20$as$u20$core..fmt..Debug$GT$3fmt17h177ebe884a8877e9E>:
    7fc0:	41 56                	push   r14
    7fc2:	53                   	push   rbx
    7fc3:	50                   	push   rax
    7fc4:	48 89 f3             	mov    rbx,rsi
    7fc7:	4c 8b 37             	mov    r14,QWORD PTR [rdi]
    7fca:	48 89 f7             	mov    rdi,rsi
    7fcd:	ff 15 7d 1e 24 00    	call   QWORD PTR [rip+0x241e7d]        # 249e50 <_GLOBAL_OFFSET_TABLE_+0x4f8>
    7fd3:	84 c0                	test   al,al
    7fd5:	74 13                	je     7fea <_ZN42_$LT$$RF$T$u20$as$u20$core..fmt..Debug$GT$3fmt17h177ebe884a8877e9E+0x2a>
    7fd7:	4c 89 f7             	mov    rdi,r14
    7fda:	48 89 de             	mov    rsi,rbx
    7fdd:	48 83 c4 08          	add    rsp,0x8
    7fe1:	5b                   	pop    rbx
    7fe2:	41 5e                	pop    r14
    7fe4:	ff 25 ae 1e 24 00    	jmp    QWORD PTR [rip+0x241eae]        # 249e98 <_GLOBAL_OFFSET_TABLE_+0x540>
    7fea:	48 89 df             	mov    rdi,rbx
    7fed:	ff 15 55 1c 24 00    	call   QWORD PTR [rip+0x241c55]        # 249c48 <_GLOBAL_OFFSET_TABLE_+0x2f0>
    7ff3:	4c 89 f7             	mov    rdi,r14
    7ff6:	48 89 de             	mov    rsi,rbx
    7ff9:	48 83 c4 08          	add    rsp,0x8
    7ffd:	84 c0                	test   al,al
    7fff:	74 09                	je     800a <_ZN42_$LT$$RF$T$u20$as$u20$core..fmt..Debug$GT$3fmt17h177ebe884a8877e9E+0x4a>
    8001:	5b                   	pop    rbx
    8002:	41 5e                	pop    r14
    8004:	ff 25 76 1f 24 00    	jmp    QWORD PTR [rip+0x241f76]        # 249f80 <_GLOBAL_OFFSET_TABLE_+0x628>
    800a:	5b                   	pop    rbx
    800b:	41 5e                	pop    r14
    800d:	ff 25 d5 1d 24 00    	jmp    QWORD PTR [rip+0x241dd5]        # 249de8 <_GLOBAL_OFFSET_TABLE_+0x490>
    8013:	66 2e 0f 1f 84 00 00 	nop    WORD PTR cs:[rax+rax*1+0x0]
    801a:	00 00 00 
    801d:	0f 1f 00             	nop    DWORD PTR [rax]

0000000000008020 <_ZN42_$LT$$RF$T$u20$as$u20$core..fmt..Debug$GT$3fmt17h27fbb1865cc8d0dfE>:
    8020:	48 89 f2             	mov    rdx,rsi
    8023:	48 8b 07             	mov    rax,QWORD PTR [rdi]
    8026:	48 8b 77 08          	mov    rsi,QWORD PTR [rdi+0x8]
    802a:	48 89 c7             	mov    rdi,rax
    802d:	ff 25 35 1e 24 00    	jmp    QWORD PTR [rip+0x241e35]        # 249e68 <_GLOBAL_OFFSET_TABLE_+0x510>
    8033:	66 2e 0f 1f 84 00 00 	nop    WORD PTR cs:[rax+rax*1+0x0]
    803a:	00 00 00 
    803d:	0f 1f 00             	nop    DWORD PTR [rax]

0000000000008040 <_ZN42_$LT$$RF$T$u20$as$u20$core..fmt..Debug$GT$3fmt17h2e5c227424d17952E>:
    8040:	48 8b 07             	mov    rax,QWORD PTR [rdi]
    8043:	48 8b 38             	mov    rdi,QWORD PTR [rax]
    8046:	48 8b 40 08          	mov    rax,QWORD PTR [rax+0x8]
    804a:	48 8b 40 18          	mov    rax,QWORD PTR [rax+0x18]
    804e:	ff e0                	jmp    rax

0000000000008050 <_ZN42_$LT$$RF$T$u20$as$u20$core..fmt..Debug$GT$3fmt17h37c1b59ca95dcbefE>:
    8050:	48 89 f7             	mov    rdi,rsi
    8053:	48 8d 35 4e 41 03 00 	lea    rsi,[rip+0x3414e]        # 3c1a8 <str.0+0x13a8>
    805a:	ba 02 00 00 00       	mov    edx,0x2
    805f:	ff 25 5b 1e 24 00    	jmp    QWORD PTR [rip+0x241e5b]        # 249ec0 <_GLOBAL_OFFSET_TABLE_+0x568>
    8065:	66 2e 0f 1f 84 00 00 	nop    WORD PTR cs:[rax+rax*1+0x0]
    806c:	00 00 00 
    806f:	90                   	nop

0000000000008070 <_ZN42_$LT$$RF$T$u20$as$u20$core..fmt..Debug$GT$3fmt17h6f13ae6685e4a2a6E>:
    8070:	48 8b 3f             	mov    rdi,QWORD PTR [rdi]
    8073:	ff 25 5f 1b 24 00    	jmp    QWORD PTR [rip+0x241b5f]        # 249bd8 <_GLOBAL_OFFSET_TABLE_+0x280>
    8079:	0f 1f 80 00 00 00 00 	nop    DWORD PTR [rax+0x0]

0000000000008080 <_ZN42_$LT$$RF$T$u20$as$u20$core..fmt..Debug$GT$3fmt17h8807fd1b45d9054dE>:
    8080:	41 56                	push   r14
    8082:	53                   	push   rbx
    8083:	50                   	push   rax
    8084:	48 89 f3             	mov    rbx,rsi
    8087:	4c 8b 37             	mov    r14,QWORD PTR [rdi]
    808a:	48 89 f7             	mov    rdi,rsi
    808d:	ff 15 bd 1d 24 00    	call   QWORD PTR [rip+0x241dbd]        # 249e50 <_GLOBAL_OFFSET_TABLE_+0x4f8>
    8093:	84 c0                	test   al,al
    8095:	74 13                	je     80aa <_ZN42_$LT$$RF$T$u20$as$u20$core..fmt..Debug$GT$3fmt17h8807fd1b45d9054dE+0x2a>
    8097:	4c 89 f7             	mov    rdi,r14
    809a:	48 89 de             	mov    rsi,rbx
    809d:	48 83 c4 08          	add    rsp,0x8
    80a1:	5b                   	pop    rbx
    80a2:	41 5e                	pop    r14
    80a4:	ff 25 5e 1e 24 00    	jmp    QWORD PTR [rip+0x241e5e]        # 249f08 <_GLOBAL_OFFSET_TABLE_+0x5b0>
    80aa:	48 89 df             	mov    rdi,rbx
    80ad:	ff 15 95 1b 24 00    	call   QWORD PTR [rip+0x241b95]        # 249c48 <_GLOBAL_OFFSET_TABLE_+0x2f0>
    80b3:	4c 89 f7             	mov    rdi,r14
    80b6:	48 89 de             	mov    rsi,rbx
    80b9:	48 83 c4 08          	add    rsp,0x8
    80bd:	84 c0                	test   al,al
    80bf:	74 09                	je     80ca <_ZN42_$LT$$RF$T$u20$as$u20$core..fmt..Debug$GT$3fmt17h8807fd1b45d9054dE+0x4a>
    80c1:	5b                   	pop    rbx
    80c2:	41 5e                	pop    r14
    80c4:	ff 25 b6 19 24 00    	jmp    QWORD PTR [rip+0x2419b6]        # 249a80 <_GLOBAL_OFFSET_TABLE_+0x128>
    80ca:	5b                   	pop    rbx
    80cb:	41 5e                	pop    r14
    80cd:	ff 25 f5 18 24 00    	jmp    QWORD PTR [rip+0x2418f5]        # 2499c8 <_GLOBAL_OFFSET_TABLE_+0x70>
    80d3:	66 2e 0f 1f 84 00 00 	nop    WORD PTR cs:[rax+rax*1+0x0]
    80da:	00 00 00 
    80dd:	0f 1f 00             	nop    DWORD PTR [rax]

00000000000080e0 <_ZN42_$LT$$RF$T$u20$as$u20$core..fmt..Debug$GT$3fmt17hb02324a6e41d17c2E>:
    80e0:	41 56                	push   r14
    80e2:	53                   	push   rbx
    80e3:	50                   	push   rax
    80e4:	48 89 f3             	mov    rbx,rsi
    80e7:	4c 8b 37             	mov    r14,QWORD PTR [rdi]
    80ea:	48 89 f7             	mov    rdi,rsi
    80ed:	ff 15 5d 1d 24 00    	call   QWORD PTR [rip+0x241d5d]        # 249e50 <_GLOBAL_OFFSET_TABLE_+0x4f8>
    80f3:	84 c0                	test   al,al
    80f5:	74 13                	je     810a <_ZN42_$LT$$RF$T$u20$as$u20$core..fmt..Debug$GT$3fmt17hb02324a6e41d17c2E+0x2a>
    80f7:	4c 89 f7             	mov    rdi,r14
    80fa:	48 89 de             	mov    rsi,rbx
    80fd:	48 83 c4 08          	add    rsp,0x8
    8101:	5b                   	pop    rbx
    8102:	41 5e                	pop    r14
    8104:	ff 25 56 1e 24 00    	jmp    QWORD PTR [rip+0x241e56]        # 249f60 <_GLOBAL_OFFSET_TABLE_+0x608>
    810a:	48 89 df             	mov    rdi,rbx
    810d:	ff 15 35 1b 24 00    	call   QWORD PTR [rip+0x241b35]        # 249c48 <_GLOBAL_OFFSET_TABLE_+0x2f0>
    8113:	4c 89 f7             	mov    rdi,r14
    8116:	48 89 de             	mov    rsi,rbx
    8119:	48 83 c4 08          	add    rsp,0x8
    811d:	84 c0                	test   al,al
    811f:	74 09                	je     812a <_ZN42_$LT$$RF$T$u20$as$u20$core..fmt..Debug$GT$3fmt17hb02324a6e41d17c2E+0x4a>
    8121:	5b                   	pop    rbx
    8122:	41 5e                	pop    r14
    8124:	ff 25 36 1a 24 00    	jmp    QWORD PTR [rip+0x241a36]        # 249b60 <_GLOBAL_OFFSET_TABLE_+0x208>
    812a:	5b                   	pop    rbx
    812b:	41 5e                	pop    r14
    812d:	ff 25 45 1b 24 00    	jmp    QWORD PTR [rip+0x241b45]        # 249c78 <_GLOBAL_OFFSET_TABLE_+0x320>
    8133:	66 2e 0f 1f 84 00 00 	nop    WORD PTR cs:[rax+rax*1+0x0]
    813a:	00 00 00 
    813d:	0f 1f 00             	nop    DWORD PTR [rax]

0000000000008140 <_ZN42_$LT$$RF$T$u20$as$u20$core..fmt..Debug$GT$3fmt17hb2facaeb734a2167E>:
    8140:	41 57                	push   r15
    8142:	41 56                	push   r14
    8144:	53                   	push   rbx
    8145:	48 83 ec 20          	sub    rsp,0x20
    8149:	48 8b 07             	mov    rax,QWORD PTR [rdi]
    814c:	48 8b 18             	mov    rbx,QWORD PTR [rax]
    814f:	4c 8d 7b 08          	lea    r15,[rbx+0x8]
    8153:	48 8d 15 0e 48 03 00 	lea    rdx,[rip+0x3480e]        # 3c968 <str.5+0x748>
    815a:	4c 8d 74 24 08       	lea    r14,[rsp+0x8]
    815f:	b9 08 00 00 00       	mov    ecx,0x8
    8164:	4c 89 f7             	mov    rdi,r14
    8167:	ff 15 ab 19 24 00    	call   QWORD PTR [rip+0x2419ab]        # 249b18 <_GLOBAL_OFFSET_TABLE_+0x1c0>
    816d:	48 89 1c 24          	mov    QWORD PTR [rsp],rbx
    8171:	48 8d 15 a0 f4 23 00 	lea    rdx,[rip+0x23f4a0]        # 247618 <__init_array_end+0x388>
    8178:	48 8d 1d f1 ea 02 00 	lea    rbx,[rip+0x2eaf1]        # 36c70 <_ZN4core3fmt8builders10DebugTuple5field17h63df0905f8e8889eE>
    817f:	48 89 e6             	mov    rsi,rsp
    8182:	4c 89 f7             	mov    rdi,r14
    8185:	ff d3                	call   rbx
    8187:	4c 89 3c 24          	mov    QWORD PTR [rsp],r15
    818b:	48 8d 15 06 00 24 00 	lea    rdx,[rip+0x240006]        # 248198 <__init_array_end+0xf08>
    8192:	48 89 e6             	mov    rsi,rsp
    8195:	4c 89 f7             	mov    rdi,r14
    8198:	ff d3                	call   rbx
    819a:	4c 89 f7             	mov    rdi,r14
    819d:	ff 15 85 1d 24 00    	call   QWORD PTR [rip+0x241d85]        # 249f28 <_GLOBAL_OFFSET_TABLE_+0x5d0>
    81a3:	48 83 c4 20          	add    rsp,0x20
    81a7:	5b                   	pop    rbx
    81a8:	41 5e                	pop    r14
    81aa:	41 5f                	pop    r15
    81ac:	c3                   	ret    
    81ad:	0f 1f 00             	nop    DWORD PTR [rax]

00000000000081b0 <_ZN42_$LT$$RF$T$u20$as$u20$core..fmt..Debug$GT$3fmt17hc4812c9899d258ebE>:
    81b0:	55                   	push   rbp
    81b1:	41 57                	push   r15
    81b3:	41 56                	push   r14
    81b5:	41 55                	push   r13
    81b7:	41 54                	push   r12
    81b9:	53                   	push   rbx
    81ba:	48 83 ec 18          	sub    rsp,0x18
    81be:	48 8b 07             	mov    rax,QWORD PTR [rdi]
    81c1:	48 8b 18             	mov    rbx,QWORD PTR [rax]
    81c4:	4c 8b 68 10          	mov    r13,QWORD PTR [rax+0x10]
    81c8:	48 89 f7             	mov    rdi,rsi
    81cb:	ff 15 7f 1b 24 00    	call   QWORD PTR [rip+0x241b7f]        # 249d50 <_GLOBAL_OFFSET_TABLE_+0x3f8>
    81d1:	48 89 54 24 08       	mov    QWORD PTR [rsp+0x8],rdx
    81d6:	48 89 04 24          	mov    QWORD PTR [rsp],rax
    81da:	4d 85 ed             	test   r13,r13
    81dd:	74 3b                	je     821a <_ZN42_$LT$$RF$T$u20$as$u20$core..fmt..Debug$GT$3fmt17hc4812c9899d258ebE+0x6a>
    81df:	4c 8d 35 1a f2 23 00 	lea    r14,[rip+0x23f21a]        # 247400 <__init_array_end+0x170>
    81e6:	49 89 e7             	mov    r15,rsp
    81e9:	4c 8d 64 24 10       	lea    r12,[rsp+0x10]
    81ee:	48 8d 2d 6b ed 02 00 	lea    rbp,[rip+0x2ed6b]        # 36f60 <_ZN4core3fmt8builders8DebugSet5entry17hbc926b4e6674e9dfE>
    81f5:	66 2e 0f 1f 84 00 00 	nop    WORD PTR cs:[rax+rax*1+0x0]
    81fc:	00 00 00 
    81ff:	90                   	nop
    8200:	48 89 5c 24 10       	mov    QWORD PTR [rsp+0x10],rbx
    8205:	48 83 c3 01          	add    rbx,0x1
    8209:	4c 89 ff             	mov    rdi,r15
    820c:	4c 89 e6             	mov    rsi,r12
    820f:	4c 89 f2             	mov    rdx,r14
    8212:	ff d5                	call   rbp
    8214:	49 83 c5 ff          	add    r13,0xffffffffffffffff
    8218:	75 e6                	jne    8200 <_ZN42_$LT$$RF$T$u20$as$u20$core..fmt..Debug$GT$3fmt17hc4812c9899d258ebE+0x50>
    821a:	48 89 e7             	mov    rdi,rsp
    821d:	ff 15 3d 1a 24 00    	call   QWORD PTR [rip+0x241a3d]        # 249c60 <_GLOBAL_OFFSET_TABLE_+0x308>
    8223:	48 83 c4 18          	add    rsp,0x18
    8227:	5b                   	pop    rbx
    8228:	41 5c                	pop    r12
    822a:	41 5d                	pop    r13
    822c:	41 5e                	pop    r14
    822e:	41 5f                	pop    r15
    8230:	5d                   	pop    rbp
    8231:	c3                   	ret    
    8232:	66 2e 0f 1f 84 00 00 	nop    WORD PTR cs:[rax+rax*1+0x0]
    8239:	00 00 00 
    823c:	0f 1f 40 00          	nop    DWORD PTR [rax+0x0]

0000000000008240 <_ZN44_$LT$$RF$T$u20$as$u20$core..fmt..Display$GT$3fmt17h6205d3f6a0f63680E>:
    8240:	48 89 f2             	mov    rdx,rsi
    8243:	48 8b 07             	mov    rax,QWORD PTR [rdi]
    8246:	48 8b 77 08          	mov    rsi,QWORD PTR [rdi+0x8]
    824a:	48 89 c7             	mov    rdi,rax
    824d:	ff 25 1d 1b 24 00    	jmp    QWORD PTR [rip+0x241b1d]        # 249d70 <_GLOBAL_OFFSET_TABLE_+0x418>
    8253:	66 2e 0f 1f 84 00 00 	nop    WORD PTR cs:[rax+rax*1+0x0]
    825a:	00 00 00 
    825d:	0f 1f 00             	nop    DWORD PTR [rax]

0000000000008260 <_ZN44_$LT$$RF$T$u20$as$u20$core..fmt..Display$GT$3fmt17ha6c3f2b52f2e9430E>:
    8260:	48 8b 3f             	mov    rdi,QWORD PTR [rdi]
    8263:	ff 25 67 1b 24 00    	jmp    QWORD PTR [rip+0x241b67]        # 249dd0 <_GLOBAL_OFFSET_TABLE_+0x478>
    8269:	0f 1f 80 00 00 00 00 	nop    DWORD PTR [rax+0x0]

0000000000008270 <_ZN4core3fmt3num50_$LT$impl$u20$core..fmt..Debug$u20$for$u20$i32$GT$3fmt17h682651640f26dd89E>:
    8270:	41 56                	push   r14
    8272:	53                   	push   rbx
    8273:	50                   	push   rax
    8274:	48 89 f3             	mov    rbx,rsi
    8277:	49 89 fe             	mov    r14,rdi
    827a:	48 89 f7             	mov    rdi,rsi
    827d:	ff 15 cd 1b 24 00    	call   QWORD PTR [rip+0x241bcd]        # 249e50 <_GLOBAL_OFFSET_TABLE_+0x4f8>
    8283:	84 c0                	test   al,al
    8285:	74 13                	je     829a <_ZN4core3fmt3num50_$LT$impl$u20$core..fmt..Debug$u20$for$u20$i32$GT$3fmt17h682651640f26dd89E+0x2a>
    8287:	4c 89 f7             	mov    rdi,r14
    828a:	48 89 de             	mov    rsi,rbx
    828d:	48 83 c4 08          	add    rsp,0x8
    8291:	5b                   	pop    rbx
    8292:	41 5e                	pop    r14
    8294:	ff 25 6e 1c 24 00    	jmp    QWORD PTR [rip+0x241c6e]        # 249f08 <_GLOBAL_OFFSET_TABLE_+0x5b0>
    829a:	48 89 df             	mov    rdi,rbx
    829d:	ff 15 a5 19 24 00    	call   QWORD PTR [rip+0x2419a5]        # 249c48 <_GLOBAL_OFFSET_TABLE_+0x2f0>
    82a3:	4c 89 f7             	mov    rdi,r14
    82a6:	48 89 de             	mov    rsi,rbx
    82a9:	48 83 c4 08          	add    rsp,0x8
    82ad:	84 c0                	test   al,al
    82af:	74 09                	je     82ba <_ZN4core3fmt3num50_$LT$impl$u20$core..fmt..Debug$u20$for$u20$i32$GT$3fmt17h682651640f26dd89E+0x4a>
    82b1:	5b                   	pop    rbx
    82b2:	41 5e                	pop    r14
    82b4:	ff 25 c6 17 24 00    	jmp    QWORD PTR [rip+0x2417c6]        # 249a80 <_GLOBAL_OFFSET_TABLE_+0x128>
    82ba:	5b                   	pop    rbx
    82bb:	41 5e                	pop    r14
    82bd:	ff 25 05 17 24 00    	jmp    QWORD PTR [rip+0x241705]        # 2499c8 <_GLOBAL_OFFSET_TABLE_+0x70>
    82c3:	66 2e 0f 1f 84 00 00 	nop    WORD PTR cs:[rax+rax*1+0x0]
    82ca:	00 00 00 
    82cd:	0f 1f 00             	nop    DWORD PTR [rax]

00000000000082d0 <_ZN4core3fmt5Write10write_char17h4b2ae02109bd4bffE>:
    82d0:	41 57                	push   r15
    82d2:	41 56                	push   r14
    82d4:	53                   	push   rbx
    82d5:	48 83 ec 10          	sub    rsp,0x10
    82d9:	c7 44 24 0c 00 00 00 	mov    DWORD PTR [rsp+0xc],0x0
    82e0:	00 
    82e1:	81 fe 80 00 00 00    	cmp    esi,0x80
    82e7:	73 10                	jae    82f9 <_ZN4core3fmt5Write10write_char17h4b2ae02109bd4bffE+0x29>
    82e9:	40 88 74 24 0c       	mov    BYTE PTR [rsp+0xc],sil
    82ee:	41 be 01 00 00 00    	mov    r14d,0x1
    82f4:	e9 91 00 00 00       	jmp    838a <_ZN4core3fmt5Write10write_char17h4b2ae02109bd4bffE+0xba>
    82f9:	89 f0                	mov    eax,esi
    82fb:	81 fe 00 08 00 00    	cmp    esi,0x800
    8301:	73 1e                	jae    8321 <_ZN4core3fmt5Write10write_char17h4b2ae02109bd4bffE+0x51>
    8303:	c1 e8 06             	shr    eax,0x6
    8306:	0c c0                	or     al,0xc0
    8308:	88 44 24 0c          	mov    BYTE PTR [rsp+0xc],al
    830c:	40 80 e6 3f          	and    sil,0x3f
    8310:	40 80 ce 80          	or     sil,0x80
    8314:	40 88 74 24 0d       	mov    BYTE PTR [rsp+0xd],sil
    8319:	41 be 02 00 00 00    	mov    r14d,0x2
    831f:	eb 69                	jmp    838a <_ZN4core3fmt5Write10write_char17h4b2ae02109bd4bffE+0xba>
    8321:	81 fe 00 00 01 00    	cmp    esi,0x10000
    8327:	73 2b                	jae    8354 <_ZN4core3fmt5Write10write_char17h4b2ae02109bd4bffE+0x84>
    8329:	c1 e8 0c             	shr    eax,0xc
    832c:	0c e0                	or     al,0xe0
    832e:	88 44 24 0c          	mov    BYTE PTR [rsp+0xc],al
    8332:	89 f0                	mov    eax,esi
    8334:	c1 e8 06             	shr    eax,0x6
    8337:	24 3f                	and    al,0x3f
    8339:	0c 80                	or     al,0x80
    833b:	88 44 24 0d          	mov    BYTE PTR [rsp+0xd],al
    833f:	40 80 e6 3f          	and    sil,0x3f
    8343:	40 80 ce 80          	or     sil,0x80
    8347:	40 88 74 24 0e       	mov    BYTE PTR [rsp+0xe],sil
    834c:	41 be 03 00 00 00    	mov    r14d,0x3
    8352:	eb 36                	jmp    838a <_ZN4core3fmt5Write10write_char17h4b2ae02109bd4bffE+0xba>
    8354:	c1 e8 12             	shr    eax,0x12
    8357:	0c f0                	or     al,0xf0
    8359:	88 44 24 0c          	mov    BYTE PTR [rsp+0xc],al
    835d:	89 f0                	mov    eax,esi
    835f:	c1 e8 0c             	shr    eax,0xc
    8362:	24 3f                	and    al,0x3f
    8364:	0c 80                	or     al,0x80
    8366:	88 44 24 0d          	mov    BYTE PTR [rsp+0xd],al
    836a:	89 f0                	mov    eax,esi
    836c:	c1 e8 06             	shr    eax,0x6
    836f:	24 3f                	and    al,0x3f
    8371:	0c 80                	or     al,0x80
    8373:	88 44 24 0e          	mov    BYTE PTR [rsp+0xe],al
    8377:	40 80 e6 3f          	and    sil,0x3f
    837b:	40 80 ce 80          	or     sil,0x80
    837f:	40 88 74 24 0f       	mov    BYTE PTR [rsp+0xf],sil
    8384:	41 be 04 00 00 00    	mov    r14d,0x4
    838a:	4c 8b 3f             	mov    r15,QWORD PTR [rdi]
    838d:	49 8b 47 08          	mov    rax,QWORD PTR [r15+0x8]
    8391:	49 8b 5f 10          	mov    rbx,QWORD PTR [r15+0x10]
    8395:	48 29 d8             	sub    rax,rbx
    8398:	4c 39 f0             	cmp    rax,r14
    839b:	72 27                	jb     83c4 <_ZN4core3fmt5Write10write_char17h4b2ae02109bd4bffE+0xf4>
    839d:	49 8b 3f             	mov    rdi,QWORD PTR [r15]
    83a0:	48 01 df             	add    rdi,rbx
    83a3:	48 8d 74 24 0c       	lea    rsi,[rsp+0xc]
    83a8:	4c 89 f2             	mov    rdx,r14
    83ab:	ff 15 d7 1b 24 00    	call   QWORD PTR [rip+0x241bd7]        # 249f88 <memcpy@GLIBC_2.14>
    83b1:	4c 01 f3             	add    rbx,r14
    83b4:	49 89 5f 10          	mov    QWORD PTR [r15+0x10],rbx
    83b8:	31 c0                	xor    eax,eax
    83ba:	48 83 c4 10          	add    rsp,0x10
    83be:	5b                   	pop    rbx
    83bf:	41 5e                	pop    r14
    83c1:	41 5f                	pop    r15
    83c3:	c3                   	ret    
    83c4:	4c 89 ff             	mov    rdi,r15
    83c7:	48 89 de             	mov    rsi,rbx
    83ca:	4c 89 f2             	mov    rdx,r14
    83cd:	e8 de df ff ff       	call   63b0 <_ZN5alloc7raw_vec19RawVec$LT$T$C$A$GT$7reserve21do_reserve_and_handle17h984011f8e56773b5E>
    83d2:	49 8b 5f 10          	mov    rbx,QWORD PTR [r15+0x10]
    83d6:	eb c5                	jmp    839d <_ZN4core3fmt5Write10write_char17h4b2ae02109bd4bffE+0xcd>
    83d8:	0f 1f 84 00 00 00 00 	nop    DWORD PTR [rax+rax*1+0x0]
    83df:	00 

00000000000083e0 <_ZN4core3fmt5Write10write_char17hca53b1591309954eE>:
    83e0:	50                   	push   rax
    83e1:	c7 44 24 04 00 00 00 	mov    DWORD PTR [rsp+0x4],0x0
    83e8:	00 
    83e9:	81 fe 80 00 00 00    	cmp    esi,0x80
    83ef:	73 16                	jae    8407 <_ZN4core3fmt5Write10write_char17hca53b1591309954eE+0x27>
    83f1:	40 88 74 24 04       	mov    BYTE PTR [rsp+0x4],sil
    83f6:	ba 01 00 00 00       	mov    edx,0x1
    83fb:	48 8d 74 24 04       	lea    rsi,[rsp+0x4]
    8400:	e8 bb 28 01 00       	call   1acc0 <_ZN80_$LT$std..io..Write..write_fmt..Adapter$LT$T$GT$$u20$as$u20$core..fmt..Write$GT$9write_str17h976238721820280dE>
    8405:	59                   	pop    rcx
    8406:	c3                   	ret    
    8407:	89 f0                	mov    eax,esi
    8409:	81 fe 00 08 00 00    	cmp    esi,0x800
    840f:	73 27                	jae    8438 <_ZN4core3fmt5Write10write_char17hca53b1591309954eE+0x58>
    8411:	c1 e8 06             	shr    eax,0x6
    8414:	0c c0                	or     al,0xc0
    8416:	88 44 24 04          	mov    BYTE PTR [rsp+0x4],al
    841a:	40 80 e6 3f          	and    sil,0x3f
    841e:	40 80 ce 80          	or     sil,0x80
    8422:	40 88 74 24 05       	mov    BYTE PTR [rsp+0x5],sil
    8427:	ba 02 00 00 00       	mov    edx,0x2
    842c:	48 8d 74 24 04       	lea    rsi,[rsp+0x4]
    8431:	e8 8a 28 01 00       	call   1acc0 <_ZN80_$LT$std..io..Write..write_fmt..Adapter$LT$T$GT$$u20$as$u20$core..fmt..Write$GT$9write_str17h976238721820280dE>
    8436:	59                   	pop    rcx
    8437:	c3                   	ret    
    8438:	81 fe 00 00 01 00    	cmp    esi,0x10000
    843e:	73 34                	jae    8474 <_ZN4core3fmt5Write10write_char17hca53b1591309954eE+0x94>
    8440:	c1 e8 0c             	shr    eax,0xc
    8443:	0c e0                	or     al,0xe0
    8445:	88 44 24 04          	mov    BYTE PTR [rsp+0x4],al
    8449:	89 f0                	mov    eax,esi
    844b:	c1 e8 06             	shr    eax,0x6
    844e:	24 3f                	and    al,0x3f
    8450:	0c 80                	or     al,0x80
    8452:	88 44 24 05          	mov    BYTE PTR [rsp+0x5],al
    8456:	40 80 e6 3f          	and    sil,0x3f
    845a:	40 80 ce 80          	or     sil,0x80
    845e:	40 88 74 24 06       	mov    BYTE PTR [rsp+0x6],sil
    8463:	ba 03 00 00 00       	mov    edx,0x3
    8468:	48 8d 74 24 04       	lea    rsi,[rsp+0x4]
    846d:	e8 4e 28 01 00       	call   1acc0 <_ZN80_$LT$std..io..Write..write_fmt..Adapter$LT$T$GT$$u20$as$u20$core..fmt..Write$GT$9write_str17h976238721820280dE>
    8472:	59                   	pop    rcx
    8473:	c3                   	ret    
    8474:	c1 e8 12             	shr    eax,0x12
    8477:	0c f0                	or     al,0xf0
    8479:	88 44 24 04          	mov    BYTE PTR [rsp+0x4],al
    847d:	89 f0                	mov    eax,esi
    847f:	c1 e8 0c             	shr    eax,0xc
    8482:	24 3f                	and    al,0x3f
    8484:	0c 80                	or     al,0x80
    8486:	88 44 24 05          	mov    BYTE PTR [rsp+0x5],al
    848a:	89 f0                	mov    eax,esi
    848c:	c1 e8 06             	shr    eax,0x6
    848f:	24 3f                	and    al,0x3f
    8491:	0c 80                	or     al,0x80
    8493:	88 44 24 06          	mov    BYTE PTR [rsp+0x6],al
    8497:	40 80 e6 3f          	and    sil,0x3f
    849b:	40 80 ce 80          	or     sil,0x80
    849f:	40 88 74 24 07       	mov    BYTE PTR [rsp+0x7],sil
    84a4:	ba 04 00 00 00       	mov    edx,0x4
    84a9:	48 8d 74 24 04       	lea    rsi,[rsp+0x4]
    84ae:	e8 0d 28 01 00       	call   1acc0 <_ZN80_$LT$std..io..Write..write_fmt..Adapter$LT$T$GT$$u20$as$u20$core..fmt..Write$GT$9write_str17h976238721820280dE>
    84b3:	59                   	pop    rcx
    84b4:	c3                   	ret    
    84b5:	66 2e 0f 1f 84 00 00 	nop    WORD PTR cs:[rax+rax*1+0x0]
    84bc:	00 00 00 
    84bf:	90                   	nop

00000000000084c0 <_ZN4core3fmt5Write10write_char17hecfa48fe26e5a296E>:
    84c0:	50                   	push   rax
    84c1:	c7 44 24 04 00 00 00 	mov    DWORD PTR [rsp+0x4],0x0
    84c8:	00 
    84c9:	81 fe 80 00 00 00    	cmp    esi,0x80
    84cf:	73 16                	jae    84e7 <_ZN4core3fmt5Write10write_char17hecfa48fe26e5a296E+0x27>
    84d1:	40 88 74 24 04       	mov    BYTE PTR [rsp+0x4],sil
    84d6:	ba 01 00 00 00       	mov    edx,0x1
    84db:	48 8d 74 24 04       	lea    rsi,[rsp+0x4]
    84e0:	e8 3b 26 01 00       	call   1ab20 <_ZN80_$LT$std..io..Write..write_fmt..Adapter$LT$T$GT$$u20$as$u20$core..fmt..Write$GT$9write_str17h5398e4c9a1f9b1beE>
    84e5:	59                   	pop    rcx
    84e6:	c3                   	ret    
    84e7:	89 f0                	mov    eax,esi
    84e9:	81 fe 00 08 00 00    	cmp    esi,0x800
    84ef:	73 27                	jae    8518 <_ZN4core3fmt5Write10write_char17hecfa48fe26e5a296E+0x58>
    84f1:	c1 e8 06             	shr    eax,0x6
    84f4:	0c c0                	or     al,0xc0
    84f6:	88 44 24 04          	mov    BYTE PTR [rsp+0x4],al
    84fa:	40 80 e6 3f          	and    sil,0x3f
    84fe:	40 80 ce 80          	or     sil,0x80
    8502:	40 88 74 24 05       	mov    BYTE PTR [rsp+0x5],sil
    8507:	ba 02 00 00 00       	mov    edx,0x2
    850c:	48 8d 74 24 04       	lea    rsi,[rsp+0x4]
    8511:	e8 0a 26 01 00       	call   1ab20 <_ZN80_$LT$std..io..Write..write_fmt..Adapter$LT$T$GT$$u20$as$u20$core..fmt..Write$GT$9write_str17h5398e4c9a1f9b1beE>
    8516:	59                   	pop    rcx
    8517:	c3                   	ret    
    8518:	81 fe 00 00 01 00    	cmp    esi,0x10000
    851e:	73 34                	jae    8554 <_ZN4core3fmt5Write10write_char17hecfa48fe26e5a296E+0x94>
    8520:	c1 e8 0c             	shr    eax,0xc
    8523:	0c e0                	or     al,0xe0
    8525:	88 44 24 04          	mov    BYTE PTR [rsp+0x4],al
    8529:	89 f0                	mov    eax,esi
    852b:	c1 e8 06             	shr    eax,0x6
    852e:	24 3f                	and    al,0x3f
    8530:	0c 80                	or     al,0x80
    8532:	88 44 24 05          	mov    BYTE PTR [rsp+0x5],al
    8536:	40 80 e6 3f          	and    sil,0x3f
    853a:	40 80 ce 80          	or     sil,0x80
    853e:	40 88 74 24 06       	mov    BYTE PTR [rsp+0x6],sil
    8543:	ba 03 00 00 00       	mov    edx,0x3
    8548:	48 8d 74 24 04       	lea    rsi,[rsp+0x4]
    854d:	e8 ce 25 01 00       	call   1ab20 <_ZN80_$LT$std..io..Write..write_fmt..Adapter$LT$T$GT$$u20$as$u20$core..fmt..Write$GT$9write_str17h5398e4c9a1f9b1beE>
    8552:	59                   	pop    rcx
    8553:	c3                   	ret    
    8554:	c1 e8 12             	shr    eax,0x12
    8557:	0c f0                	or     al,0xf0
    8559:	88 44 24 04          	mov    BYTE PTR [rsp+0x4],al
    855d:	89 f0                	mov    eax,esi
    855f:	c1 e8 0c             	shr    eax,0xc
    8562:	24 3f                	and    al,0x3f
    8564:	0c 80                	or     al,0x80
    8566:	88 44 24 05          	mov    BYTE PTR [rsp+0x5],al
    856a:	89 f0                	mov    eax,esi
    856c:	c1 e8 06             	shr    eax,0x6
    856f:	24 3f                	and    al,0x3f
    8571:	0c 80                	or     al,0x80
    8573:	88 44 24 06          	mov    BYTE PTR [rsp+0x6],al
    8577:	40 80 e6 3f          	and    sil,0x3f
    857b:	40 80 ce 80          	or     sil,0x80
    857f:	40 88 74 24 07       	mov    BYTE PTR [rsp+0x7],sil
    8584:	ba 04 00 00 00       	mov    edx,0x4
    8589:	48 8d 74 24 04       	lea    rsi,[rsp+0x4]
    858e:	e8 8d 25 01 00       	call   1ab20 <_ZN80_$LT$std..io..Write..write_fmt..Adapter$LT$T$GT$$u20$as$u20$core..fmt..Write$GT$9write_str17h5398e4c9a1f9b1beE>
    8593:	59                   	pop    rcx
    8594:	c3                   	ret    
    8595:	66 2e 0f 1f 84 00 00 	nop    WORD PTR cs:[rax+rax*1+0x0]
    859c:	00 00 00 
    859f:	90                   	nop

00000000000085a0 <_ZN4core3fmt5Write9write_fmt17h2cc582c068fa7977E>:
    85a0:	48 83 ec 48          	sub    rsp,0x48
    85a4:	48 89 7c 24 08       	mov    QWORD PTR [rsp+0x8],rdi
    85a9:	0f 10 06             	movups xmm0,XMMWORD PTR [rsi]
    85ac:	0f 10 4e 10          	movups xmm1,XMMWORD PTR [rsi+0x10]
    85b0:	0f 10 56 20          	movups xmm2,XMMWORD PTR [rsi+0x20]
    85b4:	0f 29 54 24 30       	movaps XMMWORD PTR [rsp+0x30],xmm2
    85b9:	0f 29 4c 24 20       	movaps XMMWORD PTR [rsp+0x20],xmm1
    85be:	0f 29 44 24 10       	movaps XMMWORD PTR [rsp+0x10],xmm0
    85c3:	48 8d 35 76 ed 23 00 	lea    rsi,[rip+0x23ed76]        # 247340 <__init_array_end+0xb0>
    85ca:	48 8d 7c 24 08       	lea    rdi,[rsp+0x8]
    85cf:	48 8d 54 24 10       	lea    rdx,[rsp+0x10]
    85d4:	ff 15 2e 14 24 00    	call   QWORD PTR [rip+0x24142e]        # 249a08 <_GLOBAL_OFFSET_TABLE_+0xb0>
    85da:	48 83 c4 48          	add    rsp,0x48
    85de:	c3                   	ret    
    85df:	90                   	nop

00000000000085e0 <_ZN4core3fmt5Write9write_fmt17hac466f9cc7b93eccE>:
    85e0:	48 83 ec 48          	sub    rsp,0x48
    85e4:	48 89 7c 24 08       	mov    QWORD PTR [rsp+0x8],rdi
    85e9:	0f 10 06             	movups xmm0,XMMWORD PTR [rsi]
    85ec:	0f 10 4e 10          	movups xmm1,XMMWORD PTR [rsi+0x10]
    85f0:	0f 10 56 20          	movups xmm2,XMMWORD PTR [rsi+0x20]
    85f4:	0f 29 54 24 30       	movaps XMMWORD PTR [rsp+0x30],xmm2
    85f9:	0f 29 4c 24 20       	movaps XMMWORD PTR [rsp+0x20],xmm1
    85fe:	0f 29 44 24 10       	movaps XMMWORD PTR [rsp+0x10],xmm0
    8603:	48 8d 35 96 ed 23 00 	lea    rsi,[rip+0x23ed96]        # 2473a0 <__init_array_end+0x110>
    860a:	48 8d 7c 24 08       	lea    rdi,[rsp+0x8]
    860f:	48 8d 54 24 10       	lea    rdx,[rsp+0x10]
    8614:	ff 15 ee 13 24 00    	call   QWORD PTR [rip+0x2413ee]        # 249a08 <_GLOBAL_OFFSET_TABLE_+0xb0>
    861a:	48 83 c4 48          	add    rsp,0x48
    861e:	c3                   	ret    
    861f:	90                   	nop

0000000000008620 <_ZN4core3fmt5Write9write_fmt17hd1e278282dc88e8eE>:
    8620:	48 83 ec 48          	sub    rsp,0x48
    8624:	48 89 7c 24 08       	mov    QWORD PTR [rsp+0x8],rdi
    8629:	0f 10 06             	movups xmm0,XMMWORD PTR [rsi]
    862c:	0f 10 4e 10          	movups xmm1,XMMWORD PTR [rsi+0x10]
    8630:	0f 10 56 20          	movups xmm2,XMMWORD PTR [rsi+0x20]
    8634:	0f 29 54 24 30       	movaps XMMWORD PTR [rsp+0x30],xmm2
    8639:	0f 29 4c 24 20       	movaps XMMWORD PTR [rsp+0x20],xmm1
    863e:	0f 29 44 24 10       	movaps XMMWORD PTR [rsp+0x10],xmm0
    8643:	48 8d 35 86 ed 23 00 	lea    rsi,[rip+0x23ed86]        # 2473d0 <__init_array_end+0x140>
    864a:	48 8d 7c 24 08       	lea    rdi,[rsp+0x8]
    864f:	48 8d 54 24 10       	lea    rdx,[rsp+0x10]
    8654:	ff 15 ae 13 24 00    	call   QWORD PTR [rip+0x2413ae]        # 249a08 <_GLOBAL_OFFSET_TABLE_+0xb0>
    865a:	48 83 c4 48          	add    rsp,0x48
    865e:	c3                   	ret    
    865f:	90                   	nop

0000000000008660 <_ZN4core3ops8function6FnOnce40call_once$u7b$$u7b$vtable.shim$u7d$$u7d$17h1e398dc823a50d7eE>:
    8660:	e9 fb 4b 01 00       	jmp    1d260 <_ZN3std10sys_common9backtrace10_print_fmt28_$u7b$$u7b$closure$u7d$$u7d$28_$u7b$$u7b$closure$u7d$$u7d$17h00806623287dbfebE>
    8665:	66 2e 0f 1f 84 00 00 	nop    WORD PTR cs:[rax+rax*1+0x0]
    866c:	00 00 00 
    866f:	90                   	nop

0000000000008670 <_ZN4core3ops8function6FnOnce40call_once$u7b$$u7b$vtable.shim$u7d$$u7d$17h394f80795f8616a1E>:
    8670:	50                   	push   rax
    8671:	48 8b 07             	mov    rax,QWORD PTR [rdi]
    8674:	48 89 04 24          	mov    QWORD PTR [rsp],rax
    8678:	48 89 e7             	mov    rdi,rsp
    867b:	e8 70 3e 01 00       	call   1c4f0 <_ZN3std4sync4once4Once9call_once28_$u7b$$u7b$closure$u7d$$u7d$17h48df4961cf560e83E>
    8680:	58                   	pop    rax
    8681:	c3                   	ret    
    8682:	66 2e 0f 1f 84 00 00 	nop    WORD PTR cs:[rax+rax*1+0x0]
    8689:	00 00 00 
    868c:	0f 1f 40 00          	nop    DWORD PTR [rax+0x0]

0000000000008690 <_ZN4core3ops8function6FnOnce40call_once$u7b$$u7b$vtable.shim$u7d$$u7d$17h4d1cc8cb07ae6f61E>:
    8690:	53                   	push   rbx
    8691:	48 8b 07             	mov    rax,QWORD PTR [rdi]
    8694:	48 8b 18             	mov    rbx,QWORD PTR [rax]
    8697:	48 c7 00 00 00 00 00 	mov    QWORD PTR [rax],0x0
    869e:	48 85 db             	test   rbx,rbx
    86a1:	74 3f                	je     86e2 <_ZN4core3ops8function6FnOnce40call_once$u7b$$u7b$vtable.shim$u7d$$u7d$17h4d1cc8cb07ae6f61E+0x52>
    86a3:	bf 00 04 00 00       	mov    edi,0x400
    86a8:	be 01 00 00 00       	mov    esi,0x1
    86ad:	ff 15 c5 16 24 00    	call   QWORD PTR [rip+0x2416c5]        # 249d78 <_GLOBAL_OFFSET_TABLE_+0x420>
    86b3:	48 85 c0             	test   rax,rax
    86b6:	74 45                	je     86fd <_ZN4core3ops8function6FnOnce40call_once$u7b$$u7b$vtable.shim$u7d$$u7d$17h4d1cc8cb07ae6f61E+0x6d>
    86b8:	48 8b 3b             	mov    rdi,QWORD PTR [rbx]
    86bb:	0f 57 c0             	xorps  xmm0,xmm0
    86be:	0f 11 47 20          	movups XMMWORD PTR [rdi+0x20],xmm0
    86c2:	0f 11 47 10          	movups XMMWORD PTR [rdi+0x10],xmm0
    86c6:	0f 11 07             	movups XMMWORD PTR [rdi],xmm0
    86c9:	48 89 47 30          	mov    QWORD PTR [rdi+0x30],rax
    86cd:	0f 28 05 8c 27 03 00 	movaps xmm0,XMMWORD PTR [rip+0x3278c]        # 3ae60 <str.0+0x60>
    86d4:	0f 11 47 38          	movups XMMWORD PTR [rdi+0x38],xmm0
    86d8:	c6 47 48 00          	mov    BYTE PTR [rdi+0x48],0x0
    86dc:	5b                   	pop    rbx
    86dd:	e9 ee 7f 01 00       	jmp    206d0 <_ZN3std3sys4unix5mutex14ReentrantMutex4init17h913ce1606da60c8fE>
    86e2:	48 8d 3d 7d 3d 03 00 	lea    rdi,[rip+0x33d7d]        # 3c466 <str.5+0x246>
    86e9:	48 8d 15 b0 f5 23 00 	lea    rdx,[rip+0x23f5b0]        # 247ca0 <__init_array_end+0xa10>
    86f0:	be 2b 00 00 00       	mov    esi,0x2b
    86f5:	ff 15 ad 16 24 00    	call   QWORD PTR [rip+0x2416ad]        # 249da8 <_GLOBAL_OFFSET_TABLE_+0x450>
    86fb:	0f 0b                	ud2    
    86fd:	bf 00 04 00 00       	mov    edi,0x400
    8702:	be 01 00 00 00       	mov    esi,0x1
    8707:	ff 15 7b 14 24 00    	call   QWORD PTR [rip+0x24147b]        # 249b88 <_GLOBAL_OFFSET_TABLE_+0x230>
    870d:	0f 0b                	ud2    
    870f:	90                   	nop

0000000000008710 <_ZN4core3ops8function6FnOnce40call_once$u7b$$u7b$vtable.shim$u7d$$u7d$17hb9e6071bd9290e70E>:
    8710:	e9 8b 4d 01 00       	jmp    1d4a0 <_ZN3std10sys_common9backtrace10_print_fmt28_$u7b$$u7b$closure$u7d$$u7d$17h2de4784be4aa5418E>
    8715:	66 2e 0f 1f 84 00 00 	nop    WORD PTR cs:[rax+rax*1+0x0]
    871c:	00 00 00 
    871f:	90                   	nop

0000000000008720 <_ZN4core3ops8function6FnOnce40call_once$u7b$$u7b$vtable.shim$u7d$$u7d$17he36059fe418b6b1eE>:
    8720:	55                   	push   rbp
    8721:	53                   	push   rbx
    8722:	48 83 ec 18          	sub    rsp,0x18
    8726:	48 89 f0             	mov    rax,rsi
    8729:	48 89 fb             	mov    rbx,rdi
    872c:	48 8b 4a 10          	mov    rcx,QWORD PTR [rdx+0x10]
    8730:	48 89 4c 24 10       	mov    QWORD PTR [rsp+0x10],rcx
    8735:	0f 10 02             	movups xmm0,XMMWORD PTR [rdx]
    8738:	0f 29 04 24          	movaps XMMWORD PTR [rsp],xmm0
    873c:	48 8b 0f             	mov    rcx,QWORD PTR [rdi]
    873f:	48 85 c9             	test   rcx,rcx
    8742:	48 0f 45 cf          	cmovne rcx,rdi
    8746:	8b 57 18             	mov    edx,DWORD PTR [rdi+0x18]
    8749:	48 89 e6             	mov    rsi,rsp
    874c:	48 89 c7             	mov    rdi,rax
    874f:	e8 dc 4e 01 00       	call   1d630 <_ZN3std10sys_common9backtrace15output_filename17hb3042fb11700f9f7E>
    8754:	89 c5                	mov    ebp,eax
    8756:	48 8b 3b             	mov    rdi,QWORD PTR [rbx]
    8759:	48 85 ff             	test   rdi,rdi
    875c:	74 14                	je     8772 <_ZN4core3ops8function6FnOnce40call_once$u7b$$u7b$vtable.shim$u7d$$u7d$17he36059fe418b6b1eE+0x52>
    875e:	48 8b 73 08          	mov    rsi,QWORD PTR [rbx+0x8]
    8762:	48 85 f6             	test   rsi,rsi
    8765:	74 0b                	je     8772 <_ZN4core3ops8function6FnOnce40call_once$u7b$$u7b$vtable.shim$u7d$$u7d$17he36059fe418b6b1eE+0x52>
    8767:	ba 01 00 00 00       	mov    edx,0x1
    876c:	ff 15 36 14 24 00    	call   QWORD PTR [rip+0x241436]        # 249ba8 <_GLOBAL_OFFSET_TABLE_+0x250>
    8772:	89 e8                	mov    eax,ebp
    8774:	48 83 c4 18          	add    rsp,0x18
    8778:	5b                   	pop    rbx
    8779:	5d                   	pop    rbp
    877a:	c3                   	ret    
    877b:	48 89 c5             	mov    rbp,rax
    877e:	48 89 df             	mov    rdi,rbx
    8781:	e8 da 13 00 00       	call   9b60 <_ZN4core3ptr88drop_in_place$LT$std..sys_common..backtrace.._print_fmt..$u7b$$u7b$closure$u7d$$u7d$$GT$17h6b6c7e3f34ee8614E>
    8786:	48 89 ef             	mov    rdi,rbp
    8789:	e8 82 cb ff ff       	call   5310 <_Unwind_Resume@plt>
    878e:	0f 0b                	ud2    

0000000000008790 <_ZN4core3ops8function6FnOnce9call_once17h3d3b572f357bd09dE>:
    8790:	50                   	push   rax
    8791:	e8 6a 47 01 00       	call   1cf00 <_ZN3std2rt19lang_start_internal28_$u7b$$u7b$closure$u7d$$u7d$17hd8db22e7142492f5E>
    8796:	0f 0b                	ud2    
    8798:	0f 1f 84 00 00 00 00 	nop    DWORD PTR [rax+rax*1+0x0]
    879f:	00 

00000000000087a0 <_ZN4core3ptr100drop_in_place$LT$$RF$mut$u20$std..io..Write..write_fmt..Adapter$LT$alloc..vec..Vec$LT$u8$GT$$GT$$GT$17h37e5ff9956357817E>:
    87a0:	c3                   	ret    
    87a1:	66 2e 0f 1f 84 00 00 	nop    WORD PTR cs:[rax+rax*1+0x0]
    87a8:	00 00 00 
    87ab:	0f 1f 44 00 00       	nop    DWORD PTR [rax+rax*1+0x0]

00000000000087b0 <_ZN4core3ptr101drop_in_place$LT$alloc..sync..Arc$LT$std..sync..mutex..Mutex$LT$alloc..vec..Vec$LT$u8$GT$$GT$$GT$$GT$17hf1ab9a0be00c94eaE>:
    87b0:	48 8b 07             	mov    rax,QWORD PTR [rdi]
    87b3:	f0 48 83 28 01       	lock sub QWORD PTR [rax],0x1
    87b8:	75 08                	jne    87c2 <_ZN4core3ptr101drop_in_place$LT$alloc..sync..Arc$LT$std..sync..mutex..Mutex$LT$alloc..vec..Vec$LT$u8$GT$$GT$$GT$$GT$17hf1ab9a0be00c94eaE+0x12>
    87ba:	48 8b 3f             	mov    rdi,QWORD PTR [rdi]
    87bd:	e9 7e 33 00 00       	jmp    bb40 <_ZN5alloc4sync12Arc$LT$T$GT$9drop_slow17h61aa07df9290ea1cE>
    87c2:	c3                   	ret    
    87c3:	66 2e 0f 1f 84 00 00 	nop    WORD PTR cs:[rax+rax*1+0x0]
    87ca:	00 00 00 
    87cd:	0f 1f 00             	nop    DWORD PTR [rax]

00000000000087d0 <_ZN4core3ptr101drop_in_place$LT$core..result..Result$LT$std..ffi..c_str..CString$C$std..ffi..c_str..NulError$GT$$GT$17he9e51b267d4cf7e3E>:
    87d0:	48 83 3f 00          	cmp    QWORD PTR [rdi],0x0
    87d4:	74 1d                	je     87f3 <_ZN4core3ptr101drop_in_place$LT$core..result..Result$LT$std..ffi..c_str..CString$C$std..ffi..c_str..NulError$GT$$GT$17he9e51b267d4cf7e3E+0x23>
    87d6:	48 8b 77 18          	mov    rsi,QWORD PTR [rdi+0x18]
    87da:	48 85 f6             	test   rsi,rsi
    87dd:	74 33                	je     8812 <_ZN4core3ptr101drop_in_place$LT$core..result..Result$LT$std..ffi..c_str..CString$C$std..ffi..c_str..NulError$GT$$GT$17he9e51b267d4cf7e3E+0x42>
    87df:	48 8b 7f 10          	mov    rdi,QWORD PTR [rdi+0x10]
    87e3:	48 85 ff             	test   rdi,rdi
    87e6:	74 2a                	je     8812 <_ZN4core3ptr101drop_in_place$LT$core..result..Result$LT$std..ffi..c_str..CString$C$std..ffi..c_str..NulError$GT$$GT$17he9e51b267d4cf7e3E+0x42>
    87e8:	ba 01 00 00 00       	mov    edx,0x1
    87ed:	ff 25 b5 13 24 00    	jmp    QWORD PTR [rip+0x2413b5]        # 249ba8 <_GLOBAL_OFFSET_TABLE_+0x250>
    87f3:	48 8b 47 08          	mov    rax,QWORD PTR [rdi+0x8]
    87f7:	c6 00 00             	mov    BYTE PTR [rax],0x0
    87fa:	48 8b 77 10          	mov    rsi,QWORD PTR [rdi+0x10]
    87fe:	48 85 f6             	test   rsi,rsi
    8801:	74 0f                	je     8812 <_ZN4core3ptr101drop_in_place$LT$core..result..Result$LT$std..ffi..c_str..CString$C$std..ffi..c_str..NulError$GT$$GT$17he9e51b267d4cf7e3E+0x42>
    8803:	48 8b 7f 08          	mov    rdi,QWORD PTR [rdi+0x8]
    8807:	ba 01 00 00 00       	mov    edx,0x1
    880c:	ff 25 96 13 24 00    	jmp    QWORD PTR [rip+0x241396]        # 249ba8 <_GLOBAL_OFFSET_TABLE_+0x250>
    8812:	c3                   	ret    
    8813:	66 2e 0f 1f 84 00 00 	nop    WORD PTR cs:[rax+rax*1+0x0]
    881a:	00 00 00 
    881d:	0f 1f 00             	nop    DWORD PTR [rax]

0000000000008820 <_ZN4core3ptr109drop_in_place$LT$core..slice..sort..CopyOnDrop$LT$std..backtrace_rs..symbolize..gimli..elf..ParsedSym$GT$$GT$17he3297e4c92acd25dE>:
    8820:	48 8b 07             	mov    rax,QWORD PTR [rdi]
    8823:	48 8b 4f 08          	mov    rcx,QWORD PTR [rdi+0x8]
    8827:	48 8b 50 10          	mov    rdx,QWORD PTR [rax+0x10]
    882b:	48 89 51 10          	mov    QWORD PTR [rcx+0x10],rdx
    882f:	0f 10 00             	movups xmm0,XMMWORD PTR [rax]
    8832:	0f 11 01             	movups XMMWORD PTR [rcx],xmm0
    8835:	c3                   	ret    
    8836:	66 2e 0f 1f 84 00 00 	nop    WORD PTR cs:[rax+rax*1+0x0]
    883d:	00 00 00 

0000000000008840 <_ZN4core3ptr111drop_in_place$LT$alloc..raw_vec..RawVec$LT$$LP$usize$C$std..backtrace_rs..symbolize..gimli..Mapping$RP$$GT$$GT$17h37d00acd1e8aa68eE>:
    8840:	48 85 f6             	test   rsi,rsi
    8843:	74 16                	je     885b <_ZN4core3ptr111drop_in_place$LT$alloc..raw_vec..RawVec$LT$$LP$usize$C$std..backtrace_rs..symbolize..gimli..Mapping$RP$$GT$$GT$17h37d00acd1e8aa68eE+0x1b>
    8845:	48 85 ff             	test   rdi,rdi
    8848:	74 11                	je     885b <_ZN4core3ptr111drop_in_place$LT$alloc..raw_vec..RawVec$LT$$LP$usize$C$std..backtrace_rs..symbolize..gimli..Mapping$RP$$GT$$GT$17h37d00acd1e8aa68eE+0x1b>
    884a:	48 c1 e6 08          	shl    rsi,0x8
    884e:	74 0b                	je     885b <_ZN4core3ptr111drop_in_place$LT$alloc..raw_vec..RawVec$LT$$LP$usize$C$std..backtrace_rs..symbolize..gimli..Mapping$RP$$GT$$GT$17h37d00acd1e8aa68eE+0x1b>
    8850:	ba 08 00 00 00       	mov    edx,0x8
    8855:	ff 25 4d 13 24 00    	jmp    QWORD PTR [rip+0x24134d]        # 249ba8 <_GLOBAL_OFFSET_TABLE_+0x250>
    885b:	c3                   	ret    
    885c:	0f 1f 40 00          	nop    DWORD PTR [rax+0x0]

0000000000008860 <_ZN4core3ptr115drop_in_place$LT$core..cell..RefMut$LT$core..option..Option$LT$std..sys_common..thread_info..ThreadInfo$GT$$GT$$GT$17h4287536946fae4b3E>:
    8860:	48 83 07 01          	add    QWORD PTR [rdi],0x1
    8864:	c3                   	ret    
    8865:	66 2e 0f 1f 84 00 00 	nop    WORD PTR cs:[rax+rax*1+0x0]
    886c:	00 00 00 
    886f:	90                   	nop

0000000000008870 <_ZN4core3ptr118drop_in_place$LT$alloc..vec..Vec$LT$$LP$gimli..common..DebugInfoOffset$C$gimli..common..DebugArangesOffset$RP$$GT$$GT$17hf88fc0a2c7226d7fE>:
    8870:	48 8b 77 08          	mov    rsi,QWORD PTR [rdi+0x8]
    8874:	48 85 f6             	test   rsi,rsi
    8877:	74 19                	je     8892 <_ZN4core3ptr118drop_in_place$LT$alloc..vec..Vec$LT$$LP$gimli..common..DebugInfoOffset$C$gimli..common..DebugArangesOffset$RP$$GT$$GT$17hf88fc0a2c7226d7fE+0x22>
    8879:	48 8b 3f             	mov    rdi,QWORD PTR [rdi]
    887c:	48 85 ff             	test   rdi,rdi
    887f:	74 11                	je     8892 <_ZN4core3ptr118drop_in_place$LT$alloc..vec..Vec$LT$$LP$gimli..common..DebugInfoOffset$C$gimli..common..DebugArangesOffset$RP$$GT$$GT$17hf88fc0a2c7226d7fE+0x22>
    8881:	48 c1 e6 04          	shl    rsi,0x4
    8885:	74 0b                	je     8892 <_ZN4core3ptr118drop_in_place$LT$alloc..vec..Vec$LT$$LP$gimli..common..DebugInfoOffset$C$gimli..common..DebugArangesOffset$RP$$GT$$GT$17hf88fc0a2c7226d7fE+0x22>
    8887:	ba 08 00 00 00       	mov    edx,0x8
    888c:	ff 25 16 13 24 00    	jmp    QWORD PTR [rip+0x241316]        # 249ba8 <_GLOBAL_OFFSET_TABLE_+0x250>
    8892:	c3                   	ret    
    8893:	66 2e 0f 1f 84 00 00 	nop    WORD PTR cs:[rax+rax*1+0x0]
    889a:	00 00 00 
    889d:	0f 1f 00             	nop    DWORD PTR [rax]

00000000000088a0 <_ZN4core3ptr119drop_in_place$LT$addr2line..lazy..LazyCell$LT$core..result..Result$LT$addr2line..Lines$C$gimli..read..Error$GT$$GT$$GT$17he4ff5846b2c94adeE>:
    88a0:	83 3f 02             	cmp    DWORD PTR [rdi],0x2
    88a3:	75 01                	jne    88a6 <_ZN4core3ptr119drop_in_place$LT$addr2line..lazy..LazyCell$LT$core..result..Result$LT$addr2line..Lines$C$gimli..read..Error$GT$$GT$$GT$17he4ff5846b2c94adeE+0x6>
    88a5:	c3                   	ret    
    88a6:	e9 45 11 00 00       	jmp    99f0 <_ZN4core3ptr86drop_in_place$LT$core..result..Result$LT$addr2line..Lines$C$gimli..read..Error$GT$$GT$17hb5201c6037554730E>
    88ab:	0f 1f 44 00 00       	nop    DWORD PTR [rax+rax*1+0x0]

00000000000088b0 <_ZN4core3ptr123drop_in_place$LT$addr2line..ResUnit$LT$gimli..read..endian_slice..EndianSlice$LT$gimli..endianity..LittleEndian$GT$$GT$$GT$17h973aca79868fb6b3E>:
    88b0:	41 56                	push   r14
    88b2:	53                   	push   rbx
    88b3:	50                   	push   rax
    88b4:	48 89 fb             	mov    rbx,rdi
    88b7:	48 83 c7 58          	add    rdi,0x58
    88bb:	e8 00 0a 00 00       	call   92c0 <_ZN4core3ptr55drop_in_place$LT$gimli..read..abbrev..Abbreviations$GT$17h6a817ce5d277ec4fE>
    88c0:	83 bb 78 01 00 00 2f 	cmp    DWORD PTR [rbx+0x178],0x2f
    88c7:	75 1a                	jne    88e3 <_ZN4core3ptr123drop_in_place$LT$addr2line..ResUnit$LT$gimli..read..endian_slice..EndianSlice$LT$gimli..endianity..LittleEndian$GT$$GT$$GT$17h973aca79868fb6b3E+0x33>
    88c9:	83 bb d8 01 00 00 02 	cmp    DWORD PTR [rbx+0x1d8],0x2
    88d0:	75 26                	jne    88f8 <_ZN4core3ptr123drop_in_place$LT$addr2line..ResUnit$LT$gimli..read..endian_slice..EndianSlice$LT$gimli..endianity..LittleEndian$GT$$GT$$GT$17h973aca79868fb6b3E+0x48>
    88d2:	83 bb 00 02 00 00 02 	cmp    DWORD PTR [rbx+0x200],0x2
    88d9:	75 32                	jne    890d <_ZN4core3ptr123drop_in_place$LT$addr2line..ResUnit$LT$gimli..read..endian_slice..EndianSlice$LT$gimli..endianity..LittleEndian$GT$$GT$$GT$17h973aca79868fb6b3E+0x5d>
    88db:	48 83 c4 08          	add    rsp,0x8
    88df:	5b                   	pop    rbx
    88e0:	41 5e                	pop    r14
    88e2:	c3                   	ret    
    88e3:	48 8d bb d0 00 00 00 	lea    rdi,[rbx+0xd0]
    88ea:	e8 91 03 00 00       	call   8c80 <_ZN4core3ptr153drop_in_place$LT$gimli..read..line..IncompleteLineProgram$LT$gimli..read..endian_slice..EndianSlice$LT$gimli..endianity..LittleEndian$GT$$C$usize$GT$$GT$17hae93864fea5a0a46E>
    88ef:	83 bb d8 01 00 00 02 	cmp    DWORD PTR [rbx+0x1d8],0x2
    88f6:	74 da                	je     88d2 <_ZN4core3ptr123drop_in_place$LT$addr2line..ResUnit$LT$gimli..read..endian_slice..EndianSlice$LT$gimli..endianity..LittleEndian$GT$$GT$$GT$17h973aca79868fb6b3E+0x22>
    88f8:	48 8d bb d8 01 00 00 	lea    rdi,[rbx+0x1d8]
    88ff:	e8 ec 10 00 00       	call   99f0 <_ZN4core3ptr86drop_in_place$LT$core..result..Result$LT$addr2line..Lines$C$gimli..read..Error$GT$$GT$17hb5201c6037554730E>
    8904:	83 bb 00 02 00 00 02 	cmp    DWORD PTR [rbx+0x200],0x2
    890b:	74 ce                	je     88db <_ZN4core3ptr123drop_in_place$LT$addr2line..ResUnit$LT$gimli..read..endian_slice..EndianSlice$LT$gimli..endianity..LittleEndian$GT$$GT$$GT$17h973aca79868fb6b3E+0x2b>
    890d:	48 81 c3 00 02 00 00 	add    rbx,0x200
    8914:	48 89 df             	mov    rdi,rbx
    8917:	48 83 c4 08          	add    rsp,0x8
    891b:	5b                   	pop    rbx
    891c:	41 5e                	pop    r14
    891e:	e9 3d 05 00 00       	jmp    8e60 <_ZN4core3ptr184drop_in_place$LT$core..result..Result$LT$addr2line..function..Functions$LT$gimli..read..endian_slice..EndianSlice$LT$gimli..endianity..LittleEndian$GT$$GT$$C$gimli..read..Error$GT$$GT$17hd6eb881fe1d7339bE>
    8923:	49 89 c6             	mov    r14,rax
    8926:	48 8d bb d0 00 00 00 	lea    rdi,[rbx+0xd0]
    892d:	e8 1e 05 00 00       	call   8e50 <_ZN4core3ptr181drop_in_place$LT$core..option..Option$LT$gimli..read..line..IncompleteLineProgram$LT$gimli..read..endian_slice..EndianSlice$LT$gimli..endianity..LittleEndian$GT$$C$usize$GT$$GT$$GT$17h2b2c20dcd8084c00E>
    8932:	48 8d bb d8 01 00 00 	lea    rdi,[rbx+0x1d8]
    8939:	e8 62 ff ff ff       	call   88a0 <_ZN4core3ptr119drop_in_place$LT$addr2line..lazy..LazyCell$LT$core..result..Result$LT$addr2line..Lines$C$gimli..read..Error$GT$$GT$$GT$17he4ff5846b2c94adeE>
    893e:	48 81 c3 00 02 00 00 	add    rbx,0x200
    8945:	48 89 df             	mov    rdi,rbx
    8948:	e8 53 06 00 00       	call   8fa0 <_ZN4core3ptr217drop_in_place$LT$addr2line..lazy..LazyCell$LT$core..result..Result$LT$addr2line..function..Functions$LT$gimli..read..endian_slice..EndianSlice$LT$gimli..endianity..LittleEndian$GT$$GT$$C$gimli..read..Error$GT$$GT$$GT$17hd08f3426ea0abcd1E>
    894d:	4c 89 f7             	mov    rdi,r14
    8950:	e8 bb c9 ff ff       	call   5310 <_Unwind_Resume@plt>
    8955:	0f 0b                	ud2    
    8957:	66 0f 1f 84 00 00 00 	nop    WORD PTR [rax+rax*1+0x0]
    895e:	00 00 

0000000000008960 <_ZN4core3ptr124drop_in_place$LT$addr2line..ResDwarf$LT$gimli..read..endian_slice..EndianSlice$LT$gimli..endianity..LittleEndian$GT$$GT$$GT$17h6e5bf3b1c9f307b0E>:
    8960:	41 56                	push   r14
    8962:	53                   	push   rbx
    8963:	50                   	push   rax
    8964:	48 89 fb             	mov    rbx,rdi
    8967:	48 8b 77 08          	mov    rsi,QWORD PTR [rdi+0x8]
    896b:	48 85 f6             	test   rsi,rsi
    896e:	74 19                	je     8989 <_ZN4core3ptr124drop_in_place$LT$addr2line..ResDwarf$LT$gimli..read..endian_slice..EndianSlice$LT$gimli..endianity..LittleEndian$GT$$GT$$GT$17h6e5bf3b1c9f307b0E+0x29>
    8970:	48 8b 3b             	mov    rdi,QWORD PTR [rbx]
    8973:	48 85 ff             	test   rdi,rdi
    8976:	74 11                	je     8989 <_ZN4core3ptr124drop_in_place$LT$addr2line..ResDwarf$LT$gimli..read..endian_slice..EndianSlice$LT$gimli..endianity..LittleEndian$GT$$GT$$GT$17h6e5bf3b1c9f307b0E+0x29>
    8978:	48 c1 e6 05          	shl    rsi,0x5
    897c:	74 0b                	je     8989 <_ZN4core3ptr124drop_in_place$LT$addr2line..ResDwarf$LT$gimli..read..endian_slice..EndianSlice$LT$gimli..endianity..LittleEndian$GT$$GT$$GT$17h6e5bf3b1c9f307b0E+0x29>
    897e:	ba 08 00 00 00       	mov    edx,0x8
    8983:	ff 15 1f 12 24 00    	call   QWORD PTR [rip+0x24121f]        # 249ba8 <_GLOBAL_OFFSET_TABLE_+0x250>
    8989:	48 8d 7b 18          	lea    rdi,[rbx+0x18]
    898d:	e8 2e 01 00 00       	call   8ac0 <_ZN4core3ptr146drop_in_place$LT$alloc..vec..Vec$LT$addr2line..ResUnit$LT$gimli..read..endian_slice..EndianSlice$LT$gimli..endianity..LittleEndian$GT$$GT$$GT$$GT$17hd35046f88c4444aaE>
    8992:	48 8b 43 30          	mov    rax,QWORD PTR [rbx+0x30]
    8996:	f0 48 83 28 01       	lock sub QWORD PTR [rax],0x1
    899b:	75 09                	jne    89a6 <_ZN4core3ptr124drop_in_place$LT$addr2line..ResDwarf$LT$gimli..read..endian_slice..EndianSlice$LT$gimli..endianity..LittleEndian$GT$$GT$$GT$17h6e5bf3b1c9f307b0E+0x46>
    899d:	48 8d 7b 30          	lea    rdi,[rbx+0x30]
    89a1:	e8 5a 32 00 00       	call   bc00 <_ZN5alloc4sync12Arc$LT$T$GT$9drop_slow17hbc6f46a80badb558E>
    89a6:	48 8b 7b 38          	mov    rdi,QWORD PTR [rbx+0x38]
    89aa:	48 85 ff             	test   rdi,rdi
    89ad:	74 20                	je     89cf <_ZN4core3ptr124drop_in_place$LT$addr2line..ResDwarf$LT$gimli..read..endian_slice..EndianSlice$LT$gimli..endianity..LittleEndian$GT$$GT$$GT$17h6e5bf3b1c9f307b0E+0x6f>
    89af:	e8 ac ff ff ff       	call   8960 <_ZN4core3ptr124drop_in_place$LT$addr2line..ResDwarf$LT$gimli..read..endian_slice..EndianSlice$LT$gimli..endianity..LittleEndian$GT$$GT$$GT$17h6e5bf3b1c9f307b0E>
    89b4:	48 8b 7b 38          	mov    rdi,QWORD PTR [rbx+0x38]
    89b8:	be 40 00 00 00       	mov    esi,0x40
    89bd:	ba 08 00 00 00       	mov    edx,0x8
    89c2:	48 83 c4 08          	add    rsp,0x8
    89c6:	5b                   	pop    rbx
    89c7:	41 5e                	pop    r14
    89c9:	ff 25 d9 11 24 00    	jmp    QWORD PTR [rip+0x2411d9]        # 249ba8 <_GLOBAL_OFFSET_TABLE_+0x250>
    89cf:	48 83 c4 08          	add    rsp,0x8
    89d3:	5b                   	pop    rbx
    89d4:	41 5e                	pop    r14
    89d6:	c3                   	ret    
    89d7:	49 89 c6             	mov    r14,rax
    89da:	48 8b 7b 38          	mov    rdi,QWORD PTR [rbx+0x38]
    89de:	e8 9d 32 00 00       	call   bc80 <_ZN5alloc5alloc8box_free17heb1441a622da5592E>
    89e3:	eb 18                	jmp    89fd <_ZN4core3ptr124drop_in_place$LT$addr2line..ResDwarf$LT$gimli..read..endian_slice..EndianSlice$LT$gimli..endianity..LittleEndian$GT$$GT$$GT$17h6e5bf3b1c9f307b0E+0x9d>
    89e5:	49 89 c6             	mov    r14,rax
    89e8:	48 8d 7b 30          	lea    rdi,[rbx+0x30]
    89ec:	e8 2f 03 00 00       	call   8d20 <_ZN4core3ptr154drop_in_place$LT$alloc..sync..Arc$LT$gimli..read..dwarf..Dwarf$LT$gimli..read..endian_slice..EndianSlice$LT$gimli..endianity..LittleEndian$GT$$GT$$GT$$GT$17h60086bc71ed35df6E>
    89f1:	48 83 c3 38          	add    rbx,0x38
    89f5:	48 89 df             	mov    rdi,rbx
    89f8:	e8 03 04 00 00       	call   8e00 <_ZN4core3ptr177drop_in_place$LT$core..option..Option$LT$alloc..boxed..Box$LT$addr2line..ResDwarf$LT$gimli..read..endian_slice..EndianSlice$LT$gimli..endianity..LittleEndian$GT$$GT$$GT$$GT$$GT$17hf1c6cc909f6ebe51E>
    89fd:	4c 89 f7             	mov    rdi,r14
    8a00:	e8 0b c9 ff ff       	call   5310 <_Unwind_Resume@plt>
    8a05:	0f 0b                	ud2    
    8a07:	66 0f 1f 84 00 00 00 	nop    WORD PTR [rax+rax*1+0x0]
    8a0e:	00 00 

0000000000008a10 <_ZN4core3ptr125drop_in_place$LT$addr2line..FrameIter$LT$gimli..read..endian_slice..EndianSlice$LT$gimli..endianity..LittleEndian$GT$$GT$$GT$17h1de1b6f32fe40068E>:
    8a10:	83 3f 02             	cmp    DWORD PTR [rdi],0x2
    8a13:	72 21                	jb     8a36 <_ZN4core3ptr125drop_in_place$LT$addr2line..FrameIter$LT$gimli..read..endian_slice..EndianSlice$LT$gimli..endianity..LittleEndian$GT$$GT$$GT$17h1de1b6f32fe40068E+0x26>
    8a15:	48 8b 77 28          	mov    rsi,QWORD PTR [rdi+0x28]
    8a19:	48 85 f6             	test   rsi,rsi
    8a1c:	74 18                	je     8a36 <_ZN4core3ptr125drop_in_place$LT$addr2line..FrameIter$LT$gimli..read..endian_slice..EndianSlice$LT$gimli..endianity..LittleEndian$GT$$GT$$GT$17h1de1b6f32fe40068E+0x26>
    8a1e:	48 c1 e6 03          	shl    rsi,0x3
    8a22:	48 85 f6             	test   rsi,rsi
    8a25:	74 0f                	je     8a36 <_ZN4core3ptr125drop_in_place$LT$addr2line..FrameIter$LT$gimli..read..endian_slice..EndianSlice$LT$gimli..endianity..LittleEndian$GT$$GT$$GT$17h1de1b6f32fe40068E+0x26>
    8a27:	48 8b 7f 20          	mov    rdi,QWORD PTR [rdi+0x20]
    8a2b:	ba 08 00 00 00       	mov    edx,0x8
    8a30:	ff 25 72 11 24 00    	jmp    QWORD PTR [rip+0x241172]        # 249ba8 <_GLOBAL_OFFSET_TABLE_+0x250>
    8a36:	c3                   	ret    
    8a37:	66 0f 1f 84 00 00 00 	nop    WORD PTR [rax+rax*1+0x0]
    8a3e:	00 00 

0000000000008a40 <_ZN4core3ptr130drop_in_place$LT$gimli..read..dwarf..Dwarf$LT$gimli..read..endian_slice..EndianSlice$LT$gimli..endianity..LittleEndian$GT$$GT$$GT$17h126ee05ffb5501a2E>:
    8a40:	48 8b 87 d0 00 00 00 	mov    rax,QWORD PTR [rdi+0xd0]
    8a47:	48 85 c0             	test   rax,rax
    8a4a:	74 13                	je     8a5f <_ZN4core3ptr130drop_in_place$LT$gimli..read..dwarf..Dwarf$LT$gimli..read..endian_slice..EndianSlice$LT$gimli..endianity..LittleEndian$GT$$GT$$GT$17h126ee05ffb5501a2E+0x1f>
    8a4c:	f0 48 83 28 01       	lock sub QWORD PTR [rax],0x1
    8a51:	75 0c                	jne    8a5f <_ZN4core3ptr130drop_in_place$LT$gimli..read..dwarf..Dwarf$LT$gimli..read..endian_slice..EndianSlice$LT$gimli..endianity..LittleEndian$GT$$GT$$GT$17h126ee05ffb5501a2E+0x1f>
    8a53:	48 81 c7 d0 00 00 00 	add    rdi,0xd0
    8a5a:	e9 a1 31 00 00       	jmp    bc00 <_ZN5alloc4sync12Arc$LT$T$GT$9drop_slow17hbc6f46a80badb558E>
    8a5f:	c3                   	ret    

0000000000008a60 <_ZN4core3ptr137drop_in_place$LT$gimli..read..dwarf..Unit$LT$gimli..read..endian_slice..EndianSlice$LT$gimli..endianity..LittleEndian$GT$$C$usize$GT$$GT$17h33f4b1168c27ee53E>:
    8a60:	41 56                	push   r14
    8a62:	53                   	push   rbx
    8a63:	50                   	push   rax
    8a64:	48 89 fb             	mov    rbx,rdi
    8a67:	48 83 c7 50          	add    rdi,0x50
    8a6b:	e8 50 08 00 00       	call   92c0 <_ZN4core3ptr55drop_in_place$LT$gimli..read..abbrev..Abbreviations$GT$17h6a817ce5d277ec4fE>
    8a70:	83 bb 70 01 00 00 2f 	cmp    DWORD PTR [rbx+0x170],0x2f
    8a77:	75 08                	jne    8a81 <_ZN4core3ptr137drop_in_place$LT$gimli..read..dwarf..Unit$LT$gimli..read..endian_slice..EndianSlice$LT$gimli..endianity..LittleEndian$GT$$C$usize$GT$$GT$17h33f4b1168c27ee53E+0x21>
    8a79:	48 83 c4 08          	add    rsp,0x8
    8a7d:	5b                   	pop    rbx
    8a7e:	41 5e                	pop    r14
    8a80:	c3                   	ret    
    8a81:	48 81 c3 c8 00 00 00 	add    rbx,0xc8
    8a88:	48 89 df             	mov    rdi,rbx
    8a8b:	48 83 c4 08          	add    rsp,0x8
    8a8f:	5b                   	pop    rbx
